Component: ARM Compiler 5.06 update 7 (build 960) Tool: armlink [4d3601]

==============================================================================

Section Cross References

    main.o(i.loop_oled) refers to systick.o(i.Millis) for Millis
    main.o(i.loop_oled) refers to oled.o(i.OLED_Clear) for OLED_Clear
    main.o(i.loop_oled) refers to oled.o(i.OLED_Print) for OLED_Print
    main.o(i.loop_oled) refers to main.o(.data) for last_tick
    main.o(i.loop_oled) refers to application.o(.data) for SetMode
    main.o(i.main) refers to application.o(i.setup_app) for setup_app
    main.o(i.main) refers to main.o(i.loop_oled) for loop_oled
    main.o(i.main) refers to application.o(i.loop_app) for loop_app
    global.o(i.abs_float) refers to cfrcmple.o(.text) for __aeabi_cfrcmple
    global.o(i.map) refers to fadd.o(.text) for __aeabi_fsub
    global.o(i.map) refers to fmul.o(.text) for __aeabi_fmul
    global.o(i.map) refers to fdiv.o(.text) for __aeabi_fdiv
    application.o(i.Led_Blink) refers to systick.o(i.Millis) for Millis
    application.o(i.Led_Blink) refers to stm32f10x_gpio.o(i.GPIO_ReadOutputDataBit) for GPIO_ReadOutputDataBit
    application.o(i.Led_Blink) refers to stm32f10x_gpio.o(i.GPIO_WriteBit) for GPIO_WriteBit
    application.o(i.Led_Blink) refers to application.o(.data) for systick_ms_bak_led
    application.o(i.LoopMode) refers to systick.o(i.Millis) for Millis
    application.o(i.LoopMode) refers to function.o(i.ColorTask) for ColorTask
    application.o(i.LoopMode) refers to function.o(i.JoystickTask) for JoystickTask
    application.o(i.LoopMode) refers to function.o(i.UsTask) for UsTask
    application.o(i.LoopMode) refers to function.o(i.SoundTouchTask) for SoundTouchTask
    application.o(i.LoopMode) refers to application.o(.data) for systick_ms_bak_mode
    application.o(i.LoopVisionMode) refers to systick.o(i.Millis) for Millis
    application.o(i.LoopVisionMode) refers to uart.o(i.uart2_send_str) for uart2_send_str
    application.o(i.LoopVisionMode) refers to uart.o(i.uart1_send_str) for uart1_send_str
    application.o(i.LoopVisionMode) refers to application.o(.data) for systick_ms_bak_mode
    application.o(i.Loop_Uart) refers to protocol.o(i.Parse_Group_Cmd) for Parse_Group_Cmd
    application.o(i.Loop_Uart) refers to protocol.o(i.Parse_Cmd) for Parse_Cmd
    application.o(i.Loop_Uart) refers to protocol.o(i.Parse_Action) for Parse_Action
    application.o(i.Loop_Uart) refers to protocol.o(i.Save_Action) for Save_Action
    application.o(i.Loop_Uart) refers to uart.o(.data) for Uart_GetOK
    application.o(i.Loop_Uart) refers to uart.o(.bss) for Uart_ReceiveBuf
    application.o(i.Parameter_Init) refers to spi_flash.o(i.SpiFlash_Read) for SpiFlash_Read
    application.o(i.Parameter_Init) refers to printf6.o(i.__0sprintf$6) for __2sprintf
    application.o(i.Parameter_Init) refers to uart.o(i.uart1_send_str) for uart1_send_str
    application.o(i.Parameter_Init) refers to protocol.o(.bss) for eeprom_info
    application.o(i.ServoState_Init) refers to ffltui.o(.text) for __aeabi_ui2f
    application.o(i.ServoState_Init) refers to protocol.o(.bss) for eeprom_info
    application.o(i.ServoState_Init) refers to pwmservo.o(.bss) for duoji_doing
    application.o(i.Uart_Init) refers to uart.o(i.Uart1_Init) for Uart1_Init
    application.o(i.Uart_Init) refers to uart.o(i.Uart2_Init) for Uart2_Init
    application.o(i.Uart_Init) refers to uart.o(i.Uart3_Init) for Uart3_Init
    application.o(i.loop_Joystick_key) refers to systick.o(i.Millis) for Millis
    application.o(i.loop_Joystick_key) refers to stm32f10x_gpio.o(i.GPIO_ResetBits) for GPIO_ResetBits
    application.o(i.loop_Joystick_key) refers to stm32f10x_gpio.o(i.GPIO_ReadInputDataBit) for GPIO_ReadInputDataBit
    application.o(i.loop_Joystick_key) refers to stm32f10x_gpio.o(i.GPIO_SetBits) for GPIO_SetBits
    application.o(i.loop_Joystick_key) refers to uart.o(i.uart1_send_str) for uart1_send_str
    application.o(i.loop_Joystick_key) refers to application.o(.data) for SetMode
    application.o(i.loop_Joystick_key) refers to function.o(.data) for clampMode
    application.o(i.loop_app) refers to application.o(i.Led_Blink) for Led_Blink
    application.o(i.loop_app) refers to application.o(i.loop_key) for loop_key
    application.o(i.loop_app) refers to application.o(i.loop_Joystick_key) for loop_Joystick_key
    application.o(i.loop_app) refers to application.o(i.Loop_Uart) for Loop_Uart
    application.o(i.loop_app) refers to action.o(i.Loop_Action) for Loop_Action
    application.o(i.loop_app) refers to app_ps2.o(i.AppPs2Run) for AppPs2Run
    application.o(i.loop_app) refers to application.o(i.LoopMode) for LoopMode
    application.o(i.loop_app) refers to application.o(i.LoopVisionMode) for LoopVisionMode
    application.o(i.loop_key) refers to systick.o(i.Millis) for Millis
    application.o(i.loop_key) refers to stm32f10x_gpio.o(i.GPIO_ReadInputDataBit) for GPIO_ReadInputDataBit
    application.o(i.loop_key) refers to uart.o(i.uart1_send_str) for uart1_send_str
    application.o(i.loop_key) refers to printf6.o(i.__0printf$6) for __2printf
    application.o(i.loop_key) refers to beep.o(i.Buzzer_times) for Buzzer_times
    application.o(i.loop_key) refers to application.o(.data) for tick_bak
    application.o(i.setup_app) refers to rcc.o(i.Rcc_Init) for Rcc_Init
    application.o(i.setup_app) refers to sys.o(i.SWJGpio_Init) for SWJGpio_Init
    application.o(i.setup_app) refers to systick.o(i.SysTickInit) for SysTickInit
    application.o(i.setup_app) refers to key.o(i.Key_Init) for Key_Init
    application.o(i.setup_app) refers to key.o(i.Sound_Touch_Key_Init) for Sound_Touch_Key_Init
    application.o(i.setup_app) refers to beep.o(i.Buzzer_Init) for Buzzer_Init
    application.o(i.setup_app) refers to led.o(i.LED_Init) for LED_Init
    application.o(i.setup_app) refers to joystick.o(i.ADC_Joystick_Init) for ADC_Joystick_Init
    application.o(i.setup_app) refers to application.o(i.Uart_Init) for Uart_Init
    application.o(i.setup_app) refers to ultrasonic.o(i.US_Init) for US_Init
    application.o(i.setup_app) refers to soft_i2c.o(i.SoftI2C_init) for SoftI2C_init
    application.o(i.setup_app) refers to oled.o(i.OLED_Init) for OLED_Init
    application.o(i.setup_app) refers to oled.o(i.OLED_Clear) for OLED_Clear
    application.o(i.setup_app) refers to pwmservo.o(i.PwmServoInit) for PwmServoInit
    application.o(i.setup_app) refers to servopid.o(i.PidInit) for PidInit
    application.o(i.setup_app) refers to timer.o(i.TIM1_Init) for TIM1_Init
    application.o(i.setup_app) refers to timer.o(i.TIM2_Init) for TIM2_Init
    application.o(i.setup_app) refers to spi_flash.o(i.SpiFlash_Init) for SpiFlash_Init
    application.o(i.setup_app) refers to ps2.o(i.Ps2_Init) for Ps2_Init
    application.o(i.setup_app) refers to gy33t.o(i.GY33T_Write_Byte) for GY33T_Write_Byte
    application.o(i.setup_app) refers to application.o(i.Parameter_Init) for Parameter_Init
    application.o(i.setup_app) refers to application.o(i.ServoState_Init) for ServoState_Init
    application.o(i.setup_app) refers to uart.o(i.uart1_send_str) for uart1_send_str
    application.o(i.setup_app) refers to beep.o(i.Buzzer_times) for Buzzer_times
    application.o(i.setup_app) refers to application.o(i.setup_run_action) for setup_run_action
    application.o(i.setup_app) refers to systick.o(i.Delay_ms) for Delay_ms
    application.o(i.setup_app) refers to uart.o(i.SetPrintfUart) for SetPrintfUart
    application.o(i.setup_app) refers to printf6.o(i.__0printf$6) for __2printf
    application.o(i.setup_run_action) refers to strcpy.o(.text) for strcpy
    application.o(i.setup_run_action) refers to protocol.o(i.Parse_Group_Cmd) for Parse_Group_Cmd
    application.o(i.setup_run_action) refers to protocol.o(.bss) for eeprom_info
    application.o(i.setup_run_action) refers to uart.o(.bss) for Uart_ReceiveBuf
    action.o(i.DoGroup_Once) refers to memseta.o(.text) for __aeabi_memclr
    action.o(i.DoGroup_Once) refers to spi_flash.o(i.SpiFlash_Read) for SpiFlash_Read
    action.o(i.DoGroup_Once) refers to action.o(i.GetMaxTime) for GetMaxTime
    action.o(i.DoGroup_Once) refers to protocol.o(i.Parse_Action) for Parse_Action
    action.o(i.DoGroup_Once) refers to uart.o(.bss) for Uart_ReceiveBuf
    action.o(i.DoGroup_Once) refers to action.o(.data) for action_time
    action.o(i.Loop_Action) refers to systick.o(i.Millis) for Millis
    action.o(i.Loop_Action) refers to uart.o(i.uart1_send_str) for uart1_send_str
    action.o(i.Loop_Action) refers to action.o(i.DoGroup_Once) for DoGroup_Once
    action.o(i.Loop_Action) refers to action.o(.data) for group_do_ok
    app_ps2.o(i.AppPs2Init) refers to ps2.o(i.Ps2_Init) for Ps2_Init
    app_ps2.o(i.AppPs2Run) refers to systick.o(i.Millis) for Millis
    app_ps2.o(i.AppPs2Run) refers to uart.o(i.SetPrintfUart) for SetPrintfUart
    app_ps2.o(i.AppPs2Run) refers to ps2.o(i.Ps2HotplugTask) for Ps2HotplugTask
    app_ps2.o(i.AppPs2Run) refers to app_ps2.o(i.ParsePsx_Buf) for ParsePsx_Buf
    app_ps2.o(i.AppPs2Run) refers to app_ps2.o(.data) for systick_ms_bak
    app_ps2.o(i.AppPs2Run) refers to ps2.o(.bss) for psx_buf
    app_ps2.o(i.ParsePsx_Buf) refers to memseta.o(.text) for __aeabi_memclr
    app_ps2.o(i.ParsePsx_Buf) refers to strlen.o(.text) for strlen
    app_ps2.o(i.ParsePsx_Buf) refers to memcpya.o(.text) for __aeabi_memcpy
    app_ps2.o(i.ParsePsx_Buf) refers to global.o(i.Str_Contain_Str) for Str_Contain_Str
    app_ps2.o(i.ParsePsx_Buf) refers to stm32f10x_usart.o(i.USART_ITConfig) for USART_ITConfig
    app_ps2.o(i.ParsePsx_Buf) refers to strcpy.o(.text) for strcpy
    app_ps2.o(i.ParsePsx_Buf) refers to protocol.o(i.Parse_Cmd) for Parse_Cmd
    app_ps2.o(i.ParsePsx_Buf) refers to protocol.o(i.Parse_Action) for Parse_Action
    app_ps2.o(i.ParsePsx_Buf) refers to app_ps2.o(.data) for temp
    app_ps2.o(i.ParsePsx_Buf) refers to uart.o(.bss) for Uart_ReceiveBuf
    app_ps2.o(i.ParsePsx_Buf) refers to uart.o(.data) for Uart_GetOK
    app_ps2.o(i.ParsePsx_Buf) refers to protocol.o(.bss) for cmd_return
    app_ps2.o(.data) refers to app_ps2.o(.conststring) for .conststring
    protocol.o(i.Parse_Action) refers to protocol.o(i.Voice_Cmd) for Voice_Cmd
    protocol.o(i.Parse_Action) refers to protocolconversion.o(i.user_parse_ascii_command) for user_parse_ascii_command
    protocol.o(i.Parse_Action) refers to fflti.o(.text) for __aeabi_i2f
    protocol.o(i.Parse_Action) refers to fadd.o(.text) for __aeabi_frsub
    protocol.o(i.Parse_Action) refers to ffixui.o(.text) for __aeabi_f2uiz
    protocol.o(i.Parse_Action) refers to protocol.o(i.Rewrite_Eeprom) for Rewrite_Eeprom
    protocol.o(i.Parse_Action) refers to uart.o(i.SetPrintfUart) for SetPrintfUart
    protocol.o(i.Parse_Action) refers to printf6.o(i.__0printf$6) for __2printf
    protocol.o(i.Parse_Action) refers to pwmservo.o(i.PwmServoStop) for PwmServoStop
    protocol.o(i.Parse_Action) refers to strlen.o(.text) for strlen
    protocol.o(i.Parse_Action) refers to ffltui.o(.text) for __aeabi_ui2f
    protocol.o(i.Parse_Action) refers to fmul.o(.text) for __aeabi_fmul
    protocol.o(i.Parse_Action) refers to cfrcmple.o(.text) for __aeabi_cfrcmple
    protocol.o(i.Parse_Action) refers to cfcmple.o(.text) for __aeabi_cfcmple
    protocol.o(i.Parse_Action) refers to ffixi.o(.text) for __aeabi_f2iz
    protocol.o(i.Parse_Action) refers to pwmservo.o(i.PwmServo_DoingSet) for PwmServo_DoingSet
    protocol.o(i.Parse_Action) refers to protocol.o(.bss) for eeprom_info
    protocol.o(i.Parse_Action) refers to pwmservo.o(.bss) for duoji_doing
    protocol.o(i.Parse_Cmd) refers to _scanf_int.o(.text) for _scanf_int
    protocol.o(i.Parse_Cmd) refers to scanf_fp.o(.text) for _scanf_real
    protocol.o(i.Parse_Cmd) refers to global.o(i.Str_Contain_Str) for Str_Contain_Str
    protocol.o(i.Parse_Cmd) refers to uart.o(i.SetPrintfUart) for SetPrintfUart
    protocol.o(i.Parse_Cmd) refers to printf6.o(i.__0printf$6) for __2printf
    protocol.o(i.Parse_Cmd) refers to pwmservo.o(i.PwmServoStop) for PwmServoStop
    protocol.o(i.Parse_Cmd) refers to uart.o(i.UartAll_Printf) for UartAll_Printf
    protocol.o(i.Parse_Cmd) refers to __0sscanf.o(.text) for __0sscanf
    protocol.o(i.Parse_Cmd) refers to printf6.o(i.__0sprintf$6) for __2sprintf
    protocol.o(i.Parse_Cmd) refers to memseta.o(.text) for __aeabi_memclr4
    protocol.o(i.Parse_Cmd) refers to sys.o(i.Soft_Reset) for Soft_Reset
    protocol.o(i.Parse_Cmd) refers to action.o(i.DoGroup_Once) for DoGroup_Once
    protocol.o(i.Parse_Cmd) refers to pwmservo.o(i.PwmServo_DoingSet) for PwmServo_DoingSet
    protocol.o(i.Parse_Cmd) refers to systick.o(i.Delay_ms) for Delay_ms
    protocol.o(i.Parse_Cmd) refers to protocol.o(i.Parse_Action) for Parse_Action
    protocol.o(i.Parse_Cmd) refers to memcpya.o(.text) for __aeabi_memcpy4
    protocol.o(i.Parse_Cmd) refers to fflti.o(.text) for __aeabi_i2f
    protocol.o(i.Parse_Cmd) refers to kinematics.o(i.inverseKinematics) for inverseKinematics
    protocol.o(i.Parse_Cmd) refers to protocol.o(i.angle_to_PWM) for angle_to_PWM
    protocol.o(i.Parse_Cmd) refers to pwmservo.o(i.PwmServo_SetAngle) for PwmServo_SetAngle
    protocol.o(i.Parse_Cmd) refers to stm32f10x_gpio.o(i.GPIO_SetBits) for GPIO_SetBits
    protocol.o(i.Parse_Cmd) refers to stm32f10x_gpio.o(i.GPIO_ResetBits) for GPIO_ResetBits
    protocol.o(i.Parse_Cmd) refers to action.o(.data) for group_do_ok
    protocol.o(i.Parse_Cmd) refers to protocol.o(.data) for AI_mode
    protocol.o(i.Parse_Cmd) refers to protocol.o(.bss) for cmd_return
    protocol.o(i.Parse_Cmd) refers to uart.o(.bss) for Uart_ReceiveBuf
    protocol.o(i.Parse_Cmd) refers to protocol.o(.constdata) for .constdata
    protocol.o(i.Parse_Group_Cmd) refers to _scanf_int.o(.text) for _scanf_int
    protocol.o(i.Parse_Group_Cmd) refers to global.o(i.Str_Contain_Str) for Str_Contain_Str
    protocol.o(i.Parse_Group_Cmd) refers to __0sscanf.o(.text) for __0sscanf
    protocol.o(i.Parse_Group_Cmd) refers to action.o(i.DoGroup_Once) for DoGroup_Once
    protocol.o(i.Parse_Group_Cmd) refers to action.o(.data) for group_num_times
    protocol.o(i.Rewrite_Eeprom) refers to spi_flash.o(i.SpiFlash_Erase_Sector) for SpiFlash_Erase_Sector
    protocol.o(i.Rewrite_Eeprom) refers to spi_flash.o(i.SpiFlash_Write_S) for SpiFlash_Write_S
    protocol.o(i.Rewrite_Eeprom) refers to protocol.o(.bss) for eeprom_info
    protocol.o(i.Save_Action) refers to protocol.o(i.Rewrite_Eeprom) for Rewrite_Eeprom
    protocol.o(i.Save_Action) refers to uart.o(i.uart1_send_str) for uart1_send_str
    protocol.o(i.Save_Action) refers to memseta.o(.text) for __aeabi_memclr4
    protocol.o(i.Save_Action) refers to strcpy.o(.text) for strcpy
    protocol.o(i.Save_Action) refers to strlen.o(.text) for strlen
    protocol.o(i.Save_Action) refers to spi_flash.o(i.SpiFlash_Erase_Sector) for SpiFlash_Erase_Sector
    protocol.o(i.Save_Action) refers to global.o(i.Replace_Char) for Replace_Char
    protocol.o(i.Save_Action) refers to spi_flash.o(i.SpiFlash_Write_No_Check) for SpiFlash_Write_No_Check
    protocol.o(i.Save_Action) refers to protocol.o(.bss) for eeprom_info
    protocol.o(i.Voice_Cmd) refers to global.o(i.Str_Contain_Str) for Str_Contain_Str
    protocol.o(i.Voice_Cmd) refers to uart.o(i.uart2_send_str) for uart2_send_str
    protocol.o(i.Voice_Cmd) refers to application.o(.data) for SetMode
    protocol.o(i.angle_to_PWM) refers to fmul.o(.text) for __aeabi_fmul
    protocol.o(i.angle_to_PWM) refers to fdiv.o(.text) for __aeabi_fdiv
    protocol.o(i.angle_to_PWM) refers to fadd.o(.text) for __aeabi_fadd
    protocol.o(i.angle_to_PWM) refers to ffixi.o(.text) for __aeabi_f2iz
    protocol.o(i.angle_to_PWM) refers to protocol.o(.bss) for solutions
    servopid.o(i.PidInit) refers to pwmservo.o(.bss) for pid_doing
    servopid.o(i.Position_PID) refers to fflti.o(.text) for __aeabi_i2f
    servopid.o(i.Position_PID) refers to fadd.o(.text) for __aeabi_fadd
    servopid.o(i.Position_PID) refers to fmul.o(.text) for __aeabi_fmul
    servopid.o(i.Position_PID) refers to fdiv.o(.text) for __aeabi_fdiv
    servopid.o(i.Position_PID) refers to ffixi.o(.text) for __aeabi_f2iz
    servopid.o(i.Position_PID) refers to servopid.o(.data) for Bias
    servopid.o(i.Set_PwmServo) refers to dfltui.o(.text) for __aeabi_ui2d
    servopid.o(i.Set_PwmServo) refers to ddiv.o(.text) for __aeabi_ddiv
    servopid.o(i.Set_PwmServo) refers to ffltui.o(.text) for __aeabi_ui2f
    servopid.o(i.Set_PwmServo) refers to fadd.o(.text) for __aeabi_fsub
    servopid.o(i.Set_PwmServo) refers to f2d.o(.text) for __aeabi_f2d
    servopid.o(i.Set_PwmServo) refers to d2f.o(.text) for __aeabi_d2f
    servopid.o(i.Set_PwmServo) refers to pwmservo.o(.bss) for duoji_doing
    kinematics.o(i.inverseKinematics) refers to fmul.o(.text) for __aeabi_fmul
    kinematics.o(i.inverseKinematics) refers to f2d.o(.text) for __aeabi_f2d
    kinematics.o(i.inverseKinematics) refers to ddiv.o(.text) for __aeabi_ddiv
    kinematics.o(i.inverseKinematics) refers to d2f.o(.text) for __aeabi_d2f
    kinematics.o(i.inverseKinematics) refers to cosf.o(i.cosf) for cosf
    kinematics.o(i.inverseKinematics) refers to sinf.o(i.sinf) for sinf
    kinematics.o(i.inverseKinematics) refers to fadd.o(.text) for __aeabi_fsub
    kinematics.o(i.inverseKinematics) refers to atan2f.o(i.atan2f) for atan2f
    kinematics.o(i.inverseKinematics) refers to cfrcmple.o(.text) for __aeabi_cfrcmple
    kinematics.o(i.inverseKinematics) refers to sqrtf.o(i.sqrtf) for sqrtf
    kinematics.o(i.inverseKinematics) refers to fdiv.o(.text) for __aeabi_fdiv
    kinematics.o(i.inverseKinematics) refers to memseta.o(.text) for __aeabi_memclr4
    kinematics.o(i.inverseKinematics) refers to kinematics.o(.constdata) for dh_params
    kinematics.o(i.inverseKinematics) refers to dmul.o(.text) for __aeabi_dmul
    kinematics.o(i.inverseKinematics) refers to dadd.o(.text) for __aeabi_dsub
    kinematics.o(i.inverseKinematics) refers to cfcmple.o(.text) for __aeabi_cfcmple
    function.o(i.ColorTask) refers to systick.o(i.Millis) for Millis
    function.o(i.ColorTask) refers to gy33t.o(i.GY33T_Read) for GY33T_Read
    function.o(i.ColorTask) refers to beep.o(i.Buzzer_times) for Buzzer_times
    function.o(i.ColorTask) refers to protocol.o(i.Parse_Group_Cmd) for Parse_Group_Cmd
    function.o(i.ColorTask) refers to function.o(.data) for last_tick
    function.o(i.ColorTask) refers to action.o(.data) for group_do_ok
    function.o(i.ColorTask) refers to function.o(.constdata) for color_map
    function.o(i.JoystickTask) refers to systick.o(i.Millis) for Millis
    function.o(i.JoystickTask) refers to joystick.o(i.JoystickStatus) for JoystickStatus
    function.o(i.JoystickTask) refers to printf6.o(i.__0sprintf$6) for __2sprintf
    function.o(i.JoystickTask) refers to protocol.o(i.Parse_Cmd) for Parse_Cmd
    function.o(i.JoystickTask) refers to systick.o(i.Delay_ms) for Delay_ms
    function.o(i.JoystickTask) refers to pwmservo.o(i.PwmServo_DoingSet) for PwmServo_DoingSet
    function.o(i.JoystickTask) refers to function.o(.data) for joystick_tick_bak
    function.o(i.JoystickTask) refers to protocol.o(.bss) for cmd_return
    function.o(i.SoundTouchTask) refers to systick.o(i.Millis) for Millis
    function.o(i.SoundTouchTask) refers to stm32f10x_gpio.o(i.GPIO_ReadInputDataBit) for GPIO_ReadInputDataBit
    function.o(i.SoundTouchTask) refers to beep.o(i.Buzzer_times) for Buzzer_times
    function.o(i.SoundTouchTask) refers to protocol.o(i.Parse_Group_Cmd) for Parse_Group_Cmd
    function.o(i.SoundTouchTask) refers to function.o(.data) for touch_tick_bak
    function.o(i.SoundTouchTask) refers to action.o(.data) for group_do_ok
    function.o(i.SoundTouchTask) refers to application.o(.data) for SetMode
    function.o(i.UsTask) refers to systick.o(i.Millis) for Millis
    function.o(i.UsTask) refers to ultrasonic.o(i.US_DisRead) for US_DisRead
    function.o(i.UsTask) refers to fmul.o(.text) for __aeabi_fmul
    function.o(i.UsTask) refers to fadd.o(.text) for __aeabi_fadd
    function.o(i.UsTask) refers to ffixi.o(.text) for __aeabi_f2iz
    function.o(i.UsTask) refers to uart.o(i.SetPrintfUart) for SetPrintfUart
    function.o(i.UsTask) refers to printf6.o(i.__0printf$6) for __2printf
    function.o(i.UsTask) refers to pwmservo.o(i.PwmServo_DoingSet) for PwmServo_DoingSet
    function.o(i.UsTask) refers to printf6.o(i.__0sprintf$6) for __2sprintf
    function.o(i.UsTask) refers to protocol.o(i.Parse_Cmd) for Parse_Cmd
    function.o(i.UsTask) refers to systick.o(i.Delay_ms) for Delay_ms
    function.o(i.UsTask) refers to protocol.o(i.Parse_Group_Cmd) for Parse_Group_Cmd
    function.o(i.UsTask) refers to function.o(.data) for last_tick
    function.o(i.UsTask) refers to protocol.o(.bss) for cmd_return
    protocolconversion.o(i._build_frame) refers to protocolconversion.o(i.tx_id) for tx_id
    protocolconversion.o(i._build_frame) refers to protocolconversion.o(i._chk) for _chk
    protocolconversion.o(i._build_multi_sync) refers to _scanf_int.o(.text) for _scanf_int
    protocolconversion.o(i._build_multi_sync) refers to strchr.o(.text) for strchr
    protocolconversion.o(i._build_multi_sync) refers to __0sscanf.o(.text) for __0sscanf
    protocolconversion.o(i._build_multi_sync) refers to protocolconversion.o(i.tx_id) for tx_id
    protocolconversion.o(i._build_multi_sync) refers to protocolconversion.o(i._u16be) for _u16be
    protocolconversion.o(i._build_multi_sync) refers to protocolconversion.o(i._build_frame) for _build_frame
    protocolconversion.o(i.busServo_asciiToBin) refers to _scanf_int.o(.text) for _scanf_int
    protocolconversion.o(i.busServo_asciiToBin) refers to _scanf_str.o(.text) for _scanf_string
    protocolconversion.o(i.busServo_asciiToBin) refers to strlen.o(.text) for strlen
    protocolconversion.o(i.busServo_asciiToBin) refers to memcpya.o(.text) for __aeabi_memcpy
    protocolconversion.o(i.busServo_asciiToBin) refers to protocolconversion.o(i._build_multi_sync) for _build_multi_sync
    protocolconversion.o(i.busServo_asciiToBin) refers to __0sscanf.o(.text) for __0sscanf
    protocolconversion.o(i.busServo_asciiToBin) refers to protocolconversion.o(i.lookup_cmd) for lookup_cmd
    protocolconversion.o(i.busServo_asciiToBin) refers to protocolconversion.o(i._build_frame) for _build_frame
    protocolconversion.o(i.busServo_asciiToBin) refers to protocolconversion.o(.constdata) for cmd_table
    protocolconversion.o(i.lookup_cmd) refers to toupper.o(.text) for toupper
    protocolconversion.o(i.lookup_cmd) refers to strlen.o(.text) for strlen
    protocolconversion.o(i.lookup_cmd) refers to strncmp.o(.text) for strncmp
    protocolconversion.o(i.lookup_cmd) refers to protocolconversion.o(.constdata) for cmd_table
    protocolconversion.o(i.pack_pid_write) refers to _scanf_int.o(.text) for _scanf_int
    protocolconversion.o(i.pack_pid_write) refers to strcmp.o(.text) for strcmp
    protocolconversion.o(i.pack_pid_write) refers to __0sscanf.o(.text) for __0sscanf
    protocolconversion.o(i.pack_position) refers to _scanf_int.o(.text) for _scanf_int
    protocolconversion.o(i.pack_position) refers to __0sscanf.o(.text) for __0sscanf
    protocolconversion.o(i.pack_position) refers to protocolconversion.o(i._u16be) for _u16be
    protocolconversion.o(i.user_parse_ascii_command) refers to protocolconversion.o(i.busServo_asciiToBin) for busServo_asciiToBin
    protocolconversion.o(i.user_parse_ascii_command) refers to uart.o(i.uart2_send_bytes) for uart2_send_bytes
    protocolconversion.o(i.user_parse_ascii_command) refers to uart.o(i.SetPrintfUart) for SetPrintfUart
    protocolconversion.o(i.user_parse_ascii_command) refers to printf6.o(i.__0printf$6) for __2printf
    protocolconversion.o(.constdata) refers to protocolconversion.o(.conststring) for .conststring
    protocolconversion.o(.constdata) refers to protocolconversion.o(i.pack_pid_write) for pack_pid_write
    protocolconversion.o(.constdata) refers to protocolconversion.o(i.pack_none) for pack_none
    protocolconversion.o(.constdata) refers to protocolconversion.o(i.pack_position) for pack_position
    oled.o(i.OLED_Clear) refers to oled.o(i.OLED_WRByte) for OLED_WRByte
    oled.o(i.OLED_Display_Off) refers to oled.o(i.OLED_WRByte) for OLED_WRByte
    oled.o(i.OLED_Display_On) refers to oled.o(i.OLED_WRByte) for OLED_WRByte
    oled.o(i.OLED_DrawBMP) refers to oled.o(i.OLED_SetPos) for OLED_SetPos
    oled.o(i.OLED_DrawBMP) refers to oled.o(i.OLED_WRByte) for OLED_WRByte
    oled.o(i.OLED_Fill) refers to oled.o(i.OLED_WRByte) for OLED_WRByte
    oled.o(i.OLED_Init) refers to systick.o(i.Delay_ms) for Delay_ms
    oled.o(i.OLED_Init) refers to oled.o(i.OLED_WRByte) for OLED_WRByte
    oled.o(i.OLED_Print) refers to strlen.o(.text) for strlen
    oled.o(i.OLED_Print) refers to oled.o(i.OLED_ShowChar) for OLED_ShowChar
    oled.o(i.OLED_Print) refers to oled.o(i.OLED_SetPos) for OLED_SetPos
    oled.o(i.OLED_Print) refers to oled.o(i.OLED_WRByte) for OLED_WRByte
    oled.o(i.OLED_Print) refers to oled.o(.constdata) for CN16_Msk
    oled.o(i.OLED_SetPos) refers to oled.o(i.OLED_WRByte) for OLED_WRByte
    oled.o(i.OLED_ShowChar) refers to oled.o(i.OLED_SetPos) for OLED_SetPos
    oled.o(i.OLED_ShowChar) refers to oled.o(i.OLED_WRByte) for OLED_WRByte
    oled.o(i.OLED_ShowChar) refers to oled.o(.constdata) for F8X16
    oled.o(i.OLED_ShowNum) refers to oled.o(i.OLED_Pow) for OLED_Pow
    oled.o(i.OLED_ShowNum) refers to oled.o(i.OLED_ShowChar) for OLED_ShowChar
    oled.o(i.OLED_ShowString) refers to oled.o(i.OLED_ShowChar) for OLED_ShowChar
    oled.o(i.OLED_WRByte) refers to soft_i2c.o(i.SoftI2C_write) for SoftI2C_write
    ultrasonic.o(i.USTimer_Init) refers to stm32f10x_rcc.o(i.RCC_APB1PeriphClockCmd) for RCC_APB1PeriphClockCmd
    ultrasonic.o(i.USTimer_Init) refers to stm32f10x_tim.o(i.TIM_TimeBaseInit) for TIM_TimeBaseInit
    ultrasonic.o(i.US_DisRead) refers to stm32f10x_gpio.o(i.GPIO_WriteBit) for GPIO_WriteBit
    ultrasonic.o(i.US_DisRead) refers to systick.o(i.Delay_us) for Delay_us
    ultrasonic.o(i.US_DisRead) refers to stm32f10x_tim.o(i.TIM_Cmd) for TIM_Cmd
    ultrasonic.o(i.US_DisRead) refers to systick.o(i.Millis) for Millis
    ultrasonic.o(i.US_DisRead) refers to stm32f10x_gpio.o(i.GPIO_ReadInputDataBit) for GPIO_ReadInputDataBit
    ultrasonic.o(i.US_DisRead) refers to stm32f10x_tim.o(i.TIM_SetCounter) for TIM_SetCounter
    ultrasonic.o(i.US_DisRead) refers to stm32f10x_tim.o(i.TIM_GetCounter) for TIM_GetCounter
    ultrasonic.o(i.US_DisRead) refers to ffltui.o(.text) for __aeabi_ui2f
    ultrasonic.o(i.US_DisRead) refers to f2d.o(.text) for __aeabi_f2d
    ultrasonic.o(i.US_DisRead) refers to dmul.o(.text) for __aeabi_dmul
    ultrasonic.o(i.US_DisRead) refers to d2f.o(.text) for __aeabi_d2f
    ultrasonic.o(i.US_Init) refers to stm32f10x_rcc.o(i.RCC_APB2PeriphClockCmd) for RCC_APB2PeriphClockCmd
    ultrasonic.o(i.US_Init) refers to stm32f10x_gpio.o(i.GPIO_Init) for GPIO_Init
    ultrasonic.o(i.US_Init) refers to ultrasonic.o(i.USTimer_Init) for USTimer_Init
    gy33t.o(i.GY33T_Read) refers to soft_i2c.o(i.SoftI2C_read) for SoftI2C_read
    gy33t.o(i.GY33T_Write_Byte) refers to soft_i2c.o(i.SoftI2C_write) for SoftI2C_write
    joystick.o(i.ADC_Joystick_Init) refers to joystick.o(i.Joystick_LED_Init) for Joystick_LED_Init
    joystick.o(i.ADC_Joystick_Init) refers to joystick.o(i.Joystick_Key_Init) for Joystick_Key_Init
    joystick.o(i.ADC_Joystick_Init) refers to stm32f10x_rcc.o(i.RCC_APB2PeriphClockCmd) for RCC_APB2PeriphClockCmd
    joystick.o(i.ADC_Joystick_Init) refers to stm32f10x_gpio.o(i.GPIO_Init) for GPIO_Init
    joystick.o(i.ADC_Joystick_Init) refers to stm32f10x_adc.o(i.ADC_Init) for ADC_Init
    joystick.o(i.ADC_Joystick_Init) refers to stm32f10x_rcc.o(i.RCC_ADCCLKConfig) for RCC_ADCCLKConfig
    joystick.o(i.ADC_Joystick_Init) refers to stm32f10x_adc.o(i.ADC_Cmd) for ADC_Cmd
    joystick.o(i.ADC_Joystick_Init) refers to stm32f10x_adc.o(i.ADC_ResetCalibration) for ADC_ResetCalibration
    joystick.o(i.ADC_Joystick_Init) refers to stm32f10x_adc.o(i.ADC_GetResetCalibrationStatus) for ADC_GetResetCalibrationStatus
    joystick.o(i.ADC_Joystick_Init) refers to stm32f10x_adc.o(i.ADC_StartCalibration) for ADC_StartCalibration
    joystick.o(i.ADC_Joystick_Init) refers to stm32f10x_adc.o(i.ADC_GetCalibrationStatus) for ADC_GetCalibrationStatus
    joystick.o(i.Get_Adc_Joystick_Value) refers to stm32f10x_adc.o(i.ADC_RegularChannelConfig) for ADC_RegularChannelConfig
    joystick.o(i.Get_Adc_Joystick_Value) refers to stm32f10x_adc.o(i.ADC_SoftwareStartConvCmd) for ADC_SoftwareStartConvCmd
    joystick.o(i.Get_Adc_Joystick_Value) refers to stm32f10x_adc.o(i.ADC_GetFlagStatus) for ADC_GetFlagStatus
    joystick.o(i.Get_Adc_Joystick_Value) refers to stm32f10x_adc.o(i.ADC_GetConversionValue) for ADC_GetConversionValue
    joystick.o(i.Get_Joystick_Percentage_value) refers to joystick.o(i.Get_Adc_Joystick_Value) for Get_Adc_Joystick_Value
    joystick.o(i.Get_Joystick_Percentage_value) refers to fflti.o(.text) for __aeabi_i2f
    joystick.o(i.Get_Joystick_Percentage_value) refers to fdiv.o(.text) for __aeabi_fdiv
    joystick.o(i.Get_Joystick_Percentage_value) refers to fmul.o(.text) for __aeabi_fmul
    joystick.o(i.Get_Joystick_Percentage_value) refers to ffixi.o(.text) for __aeabi_f2iz
    joystick.o(i.JoystickStatus) refers to joystick.o(i.Get_Joystick_Percentage_value) for Get_Joystick_Percentage_value
    joystick.o(i.Joystick_Key_Init) refers to stm32f10x_rcc.o(i.RCC_APB2PeriphClockCmd) for RCC_APB2PeriphClockCmd
    joystick.o(i.Joystick_Key_Init) refers to stm32f10x_gpio.o(i.GPIO_Init) for GPIO_Init
    joystick.o(i.Joystick_LED_Init) refers to stm32f10x_rcc.o(i.RCC_APB2PeriphClockCmd) for RCC_APB2PeriphClockCmd
    joystick.o(i.Joystick_LED_Init) refers to stm32f10x_gpio.o(i.GPIO_Init) for GPIO_Init
    joystick.o(i.Joystick_LED_Init) refers to stm32f10x_gpio.o(i.GPIO_SetBits) for GPIO_SetBits
    pwmservo.o(i.PwmServoInit) refers to stm32f10x_rcc.o(i.RCC_APB2PeriphClockCmd) for RCC_APB2PeriphClockCmd
    pwmservo.o(i.PwmServoInit) refers to stm32f10x_gpio.o(i.GPIO_Init) for GPIO_Init
    pwmservo.o(i.PwmServoInit) refers to pwmservo.o(.bss) for duoji_doing
    pwmservo.o(i.PwmServoStop) refers to ffixui.o(.text) for __aeabi_f2uiz
    pwmservo.o(i.PwmServoStop) refers to pwmservo.o(.bss) for duoji_doing
    pwmservo.o(i.PwmServo_BiasSet) refers to pwmservo.o(.bss) for duoji_doing
    pwmservo.o(i.PwmServo_DoingSet) refers to ffixui.o(.text) for __aeabi_f2uiz
    pwmservo.o(i.PwmServo_DoingSet) refers to fflti.o(.text) for __aeabi_i2f
    pwmservo.o(i.PwmServo_DoingSet) refers to cfcmple.o(.text) for __aeabi_cfcmpeq
    pwmservo.o(i.PwmServo_DoingSet) refers to fadd.o(.text) for __aeabi_fadd
    pwmservo.o(i.PwmServo_DoingSet) refers to ffixi.o(.text) for __aeabi_f2iz
    pwmservo.o(i.PwmServo_DoingSet) refers to fdiv.o(.text) for __aeabi_fdiv
    pwmservo.o(i.PwmServo_DoingSet) refers to pwmservo.o(.bss) for duoji_doing
    pwmservo.o(i.PwmServo_IncOffset) refers to cfcmple.o(.text) for __aeabi_cfcmpeq
    pwmservo.o(i.PwmServo_IncOffset) refers to fmul.o(.text) for __aeabi_fmul
    pwmservo.o(i.PwmServo_IncOffset) refers to global.o(i.abs_float) for abs_float
    pwmservo.o(i.PwmServo_IncOffset) refers to fflti.o(.text) for __aeabi_i2f
    pwmservo.o(i.PwmServo_IncOffset) refers to fadd.o(.text) for __aeabi_fsub
    pwmservo.o(i.PwmServo_IncOffset) refers to pwmservo.o(.bss) for duoji_doing
    pwmservo.o(i.PwmServo_PinSet) refers to stm32f10x_gpio.o(i.GPIO_WriteBit) for GPIO_WriteBit
    pwmservo.o(i.PwmServo_SetAngle) refers to f2d.o(.text) for __aeabi_f2d
    pwmservo.o(i.PwmServo_SetAngle) refers to fmin.o(i.fmin) for fmin
    pwmservo.o(i.PwmServo_SetAngle) refers to fmax.o(i.fmax) for fmax
    pwmservo.o(i.PwmServo_SetAngle) refers to d2f.o(.text) for __aeabi_d2f
    pwmservo.o(i.PwmServo_SetAngle) refers to fmul.o(.text) for __aeabi_fmul
    pwmservo.o(i.PwmServo_SetAngle) refers to fdiv.o(.text) for __aeabi_fdiv
    pwmservo.o(i.PwmServo_SetAngle) refers to fadd.o(.text) for __aeabi_fadd
    pwmservo.o(i.PwmServo_SetAngle) refers to ffixi.o(.text) for __aeabi_f2iz
    pwmservo.o(i.PwmServo_SetAngle) refers to pwmservo.o(i.PwmServo_DoingSet) for PwmServo_DoingSet
    pwmservo.o(i.PwmServo_SetAngle) refers to pwmservo.o(.data) for fix_raio
    uart.o(i.SetPrintfUart) refers to uart.o(.data) for SW_Uart
    uart.o(i.USART1_IRQHandler) refers to stm32f10x_usart.o(i.USART_GetITStatus) for USART_GetITStatus
    uart.o(i.USART1_IRQHandler) refers to stm32f10x_dma.o(i.DMA_Cmd) for DMA_Cmd
    uart.o(i.USART1_IRQHandler) refers to stm32f10x_dma.o(i.DMA_GetCurrDataCounter) for DMA_GetCurrDataCounter
    uart.o(i.USART1_IRQHandler) refers to uart.o(i.Uart_DataParse) for Uart_DataParse
    uart.o(i.USART1_IRQHandler) refers to stm32f10x_dma.o(i.DMA_SetCurrDataCounter) for DMA_SetCurrDataCounter
    uart.o(i.USART1_IRQHandler) refers to uart.o(.bss) for Uart1_DMA_RX_BUF
    uart.o(i.USART2_IRQHandler) refers to stm32f10x_usart.o(i.USART_GetITStatus) for USART_GetITStatus
    uart.o(i.USART2_IRQHandler) refers to stm32f10x_usart.o(i.USART_ReceiveData) for USART_ReceiveData
    uart.o(i.USART2_IRQHandler) refers to uart.o(i.Uart_DataParse) for Uart_DataParse
    uart.o(i.USART2_IRQHandler) refers to stm32f10x_usart.o(i.USART_ClearITPendingBit) for USART_ClearITPendingBit
    uart.o(i.USART3_IRQHandler) refers to stm32f10x_usart.o(i.USART_GetITStatus) for USART_GetITStatus
    uart.o(i.USART3_IRQHandler) refers to stm32f10x_dma.o(i.DMA_Cmd) for DMA_Cmd
    uart.o(i.USART3_IRQHandler) refers to stm32f10x_dma.o(i.DMA_GetCurrDataCounter) for DMA_GetCurrDataCounter
    uart.o(i.USART3_IRQHandler) refers to uart.o(i.Uart_DataParse) for Uart_DataParse
    uart.o(i.USART3_IRQHandler) refers to stm32f10x_dma.o(i.DMA_SetCurrDataCounter) for DMA_SetCurrDataCounter
    uart.o(i.USART3_IRQHandler) refers to uart.o(.data) for Uart_ReceiveCount
    uart.o(i.USART3_IRQHandler) refers to uart.o(.bss) for Uart3_DMA_RX_BUF
    uart.o(i.Uart1_Init) refers to stm32f10x_rcc.o(i.RCC_APB2PeriphClockCmd) for RCC_APB2PeriphClockCmd
    uart.o(i.Uart1_Init) refers to stm32f10x_rcc.o(i.RCC_AHBPeriphClockCmd) for RCC_AHBPeriphClockCmd
    uart.o(i.Uart1_Init) refers to stm32f10x_usart.o(i.USART_DeInit) for USART_DeInit
    uart.o(i.Uart1_Init) refers to stm32f10x_gpio.o(i.GPIO_Init) for GPIO_Init
    uart.o(i.Uart1_Init) refers to stm32f10x_usart.o(i.USART_Init) for USART_Init
    uart.o(i.Uart1_Init) refers to stm32f10x_dma.o(i.DMA_DeInit) for DMA_DeInit
    uart.o(i.Uart1_Init) refers to stm32f10x_dma.o(i.DMA_Init) for DMA_Init
    uart.o(i.Uart1_Init) refers to stm32f10x_dma.o(i.DMA_Cmd) for DMA_Cmd
    uart.o(i.Uart1_Init) refers to stm32f10x_usart.o(i.USART_DMACmd) for USART_DMACmd
    uart.o(i.Uart1_Init) refers to stm32f10x_usart.o(i.USART_ITConfig) for USART_ITConfig
    uart.o(i.Uart1_Init) refers to misc.o(i.NVIC_Init) for NVIC_Init
    uart.o(i.Uart1_Init) refers to stm32f10x_usart.o(i.USART_Cmd) for USART_Cmd
    uart.o(i.Uart1_Init) refers to uart.o(.bss) for Uart1_DMA_RX_BUF
    uart.o(i.Uart2_Init) refers to stm32f10x_rcc.o(i.RCC_APB2PeriphClockCmd) for RCC_APB2PeriphClockCmd
    uart.o(i.Uart2_Init) refers to stm32f10x_rcc.o(i.RCC_APB1PeriphClockCmd) for RCC_APB1PeriphClockCmd
    uart.o(i.Uart2_Init) refers to stm32f10x_gpio.o(i.GPIO_Init) for GPIO_Init
    uart.o(i.Uart2_Init) refers to stm32f10x_usart.o(i.USART_Init) for USART_Init
    uart.o(i.Uart2_Init) refers to stm32f10x_usart.o(i.USART_HalfDuplexCmd) for USART_HalfDuplexCmd
    uart.o(i.Uart2_Init) refers to misc.o(i.NVIC_Init) for NVIC_Init
    uart.o(i.Uart2_Init) refers to stm32f10x_usart.o(i.USART_ITConfig) for USART_ITConfig
    uart.o(i.Uart2_Init) refers to stm32f10x_usart.o(i.USART_Cmd) for USART_Cmd
    uart.o(i.Uart3_Init) refers to stm32f10x_rcc.o(i.RCC_APB2PeriphClockCmd) for RCC_APB2PeriphClockCmd
    uart.o(i.Uart3_Init) refers to stm32f10x_rcc.o(i.RCC_APB1PeriphClockCmd) for RCC_APB1PeriphClockCmd
    uart.o(i.Uart3_Init) refers to stm32f10x_rcc.o(i.RCC_AHBPeriphClockCmd) for RCC_AHBPeriphClockCmd
    uart.o(i.Uart3_Init) refers to stm32f10x_gpio.o(i.GPIO_Init) for GPIO_Init
    uart.o(i.Uart3_Init) refers to stm32f10x_usart.o(i.USART_Init) for USART_Init
    uart.o(i.Uart3_Init) refers to stm32f10x_dma.o(i.DMA_DeInit) for DMA_DeInit
    uart.o(i.Uart3_Init) refers to stm32f10x_dma.o(i.DMA_Init) for DMA_Init
    uart.o(i.Uart3_Init) refers to stm32f10x_dma.o(i.DMA_Cmd) for DMA_Cmd
    uart.o(i.Uart3_Init) refers to stm32f10x_usart.o(i.USART_DMACmd) for USART_DMACmd
    uart.o(i.Uart3_Init) refers to stm32f10x_usart.o(i.USART_ITConfig) for USART_ITConfig
    uart.o(i.Uart3_Init) refers to misc.o(i.NVIC_Init) for NVIC_Init
    uart.o(i.Uart3_Init) refers to stm32f10x_usart.o(i.USART_Cmd) for USART_Cmd
    uart.o(i.Uart3_Init) refers to uart.o(.bss) for Uart3_DMA_RX_BUF
    uart.o(i.UartAll_Printf) refers to uart.o(i.SetPrintfUart) for SetPrintfUart
    uart.o(i.UartAll_Printf) refers to printf6.o(i.__0printf$6) for __2printf
    uart.o(i.Uart_DataParse) refers to uart.o(.data) for Uart_GetOK
    uart.o(i.Uart_DataParse) refers to uart.o(.bss) for Uart_ReceiveBuf
    uart.o(i.fputc) refers to uart.o(.data) for SW_Uart
    uart.o(i.uart1_send_str) refers to stm32f10x_usart.o(i.USART_SendData) for USART_SendData
    uart.o(i.uart1_send_str) refers to stm32f10x_usart.o(i.USART_GetFlagStatus) for USART_GetFlagStatus
    uart.o(i.uart2_send_bytes) refers to stm32f10x_usart.o(i.USART_ITConfig) for USART_ITConfig
    uart.o(i.uart2_send_bytes) refers to stm32f10x_usart.o(i.USART_SendData) for USART_SendData
    uart.o(i.uart2_send_bytes) refers to stm32f10x_usart.o(i.USART_GetFlagStatus) for USART_GetFlagStatus
    uart.o(i.uart2_send_str) refers to stm32f10x_usart.o(i.USART_ITConfig) for USART_ITConfig
    uart.o(i.uart2_send_str) refers to stm32f10x_usart.o(i.USART_SendData) for USART_SendData
    uart.o(i.uart2_send_str) refers to stm32f10x_usart.o(i.USART_GetFlagStatus) for USART_GetFlagStatus
    beep.o(i.Buzzer_Init) refers to stm32f10x_rcc.o(i.RCC_APB2PeriphClockCmd) for RCC_APB2PeriphClockCmd
    beep.o(i.Buzzer_Init) refers to stm32f10x_gpio.o(i.GPIO_Init) for GPIO_Init
    beep.o(i.Buzzer_Init) refers to stm32f10x_gpio.o(i.GPIO_ResetBits) for GPIO_ResetBits
    beep.o(i.Buzzer_times) refers to stm32f10x_gpio.o(i.GPIO_SetBits) for GPIO_SetBits
    beep.o(i.Buzzer_times) refers to systick.o(i.Delay_ms) for Delay_ms
    beep.o(i.Buzzer_times) refers to stm32f10x_gpio.o(i.GPIO_ResetBits) for GPIO_ResetBits
    key.o(i.Key_Init) refers to stm32f10x_rcc.o(i.RCC_APB2PeriphClockCmd) for RCC_APB2PeriphClockCmd
    key.o(i.Key_Init) refers to stm32f10x_gpio.o(i.GPIO_Init) for GPIO_Init
    key.o(i.Key_Scan) refers to stm32f10x_gpio.o(i.GPIO_ReadInputDataBit) for GPIO_ReadInputDataBit
    key.o(i.Key_Scan) refers to key.o(.data) for Key_Flag
    key.o(i.Sound_Touch_Key_Init) refers to stm32f10x_rcc.o(i.RCC_APB2PeriphClockCmd) for RCC_APB2PeriphClockCmd
    key.o(i.Sound_Touch_Key_Init) refers to stm32f10x_gpio.o(i.GPIO_Init) for GPIO_Init
    key.o(i.Touch_Key_Scan) refers to stm32f10x_gpio.o(i.GPIO_ReadInputDataBit) for GPIO_ReadInputDataBit
    key.o(i.Touch_Key_Scan) refers to key.o(.data) for Key_Flag
    led.o(i.LED_Init) refers to stm32f10x_rcc.o(i.RCC_APB2PeriphClockCmd) for RCC_APB2PeriphClockCmd
    led.o(i.LED_Init) refers to stm32f10x_gpio.o(i.GPIO_Init) for GPIO_Init
    led.o(i.LED_Init) refers to stm32f10x_gpio.o(i.GPIO_SetBits) for GPIO_SetBits
    ps2.o(i.Ps2HotplugTask) refers to ps2.o(i.Ps2Probe) for Ps2Probe
    ps2.o(i.Ps2HotplugTask) refers to ps2.o(i.Ps2ReConfig) for Ps2ReConfig
    ps2.o(i.Ps2HotplugTask) refers to systick.o(i.Delay_ms) for Delay_ms
    ps2.o(i.Ps2HotplugTask) refers to ps2.o(i.Ps2_WriteRead) for Ps2_WriteRead
    ps2.o(i.Ps2HotplugTask) refers to ps2.o(.data) for ps2_hp_state
    ps2.o(i.Ps2HotplugTask) refers to ps2.o(.bss) for psx_buf
    ps2.o(i.Ps2Probe) refers to stm32f10x_gpio.o(i.GPIO_WriteBit) for GPIO_WriteBit
    ps2.o(i.Ps2Probe) refers to ps2.o(i.Ps2TransferByte) for Ps2TransferByte
    ps2.o(i.Ps2ReConfig) refers to stm32f10x_gpio.o(i.GPIO_WriteBit) for GPIO_WriteBit
    ps2.o(i.Ps2ReConfig) refers to ps2.o(i.Ps2TransferByte) for Ps2TransferByte
    ps2.o(i.Ps2ReConfig) refers to systick.o(i.Delay_ms) for Delay_ms
    ps2.o(i.Ps2ReConfig) refers to ps2.o(.constdata) for cfg
    ps2.o(i.Ps2TransferByte) refers to stm32f10x_gpio.o(i.GPIO_WriteBit) for GPIO_WriteBit
    ps2.o(i.Ps2TransferByte) refers to systick.o(i.Delay_us) for Delay_us
    ps2.o(i.Ps2TransferByte) refers to stm32f10x_gpio.o(i.GPIO_ReadInputDataBit) for GPIO_ReadInputDataBit
    ps2.o(i.Ps2_Init) refers to stm32f10x_rcc.o(i.RCC_APB2PeriphClockCmd) for RCC_APB2PeriphClockCmd
    ps2.o(i.Ps2_Init) refers to stm32f10x_gpio.o(i.GPIO_Init) for GPIO_Init
    ps2.o(i.Ps2_Init) refers to stm32f10x_gpio.o(i.GPIO_WriteBit) for GPIO_WriteBit
    ps2.o(i.Ps2_Init) refers to systick.o(i.Delay_ms) for Delay_ms
    ps2.o(i.Ps2_Init) refers to ps2.o(i.Ps2TransferByte) for Ps2TransferByte
    ps2.o(i.Ps2_Init) refers to ps2.o(.constdata) for cfg
    ps2.o(i.Ps2_WriteRead) refers to stm32f10x_gpio.o(i.GPIO_WriteBit) for GPIO_WriteBit
    ps2.o(i.Ps2_WriteRead) refers to ps2.o(i.Ps2TransferByte) for Ps2TransferByte
    ps2.o(i.Ps2_WriteRead) refers to ps2.o(.bss) for psx_buf
    spi_flash.o(i.SpiFlash_Erase_Chip) refers to spi_flash.o(i.SpiFlash_Write_Enable) for SpiFlash_Write_Enable
    spi_flash.o(i.SpiFlash_Erase_Chip) refers to spi_flash.o(i.SpiFlash_Wait_Busy) for SpiFlash_Wait_Busy
    spi_flash.o(i.SpiFlash_Erase_Chip) refers to stm32f10x_gpio.o(i.GPIO_WriteBit) for GPIO_WriteBit
    spi_flash.o(i.SpiFlash_Erase_Chip) refers to spi_flash.o(i.Spi_WriteRead) for Spi_WriteRead
    spi_flash.o(i.SpiFlash_Erase_Sector) refers to spi_flash.o(i.SpiFlash_Write_Enable) for SpiFlash_Write_Enable
    spi_flash.o(i.SpiFlash_Erase_Sector) refers to spi_flash.o(i.SpiFlash_Wait_Busy) for SpiFlash_Wait_Busy
    spi_flash.o(i.SpiFlash_Erase_Sector) refers to stm32f10x_gpio.o(i.GPIO_WriteBit) for GPIO_WriteBit
    spi_flash.o(i.SpiFlash_Erase_Sector) refers to spi_flash.o(i.Spi_WriteRead) for Spi_WriteRead
    spi_flash.o(i.SpiFlash_Init) refers to stm32f10x_rcc.o(i.RCC_APB2PeriphClockCmd) for RCC_APB2PeriphClockCmd
    spi_flash.o(i.SpiFlash_Init) refers to stm32f10x_gpio.o(i.GPIO_Init) for GPIO_Init
    spi_flash.o(i.SpiFlash_Init) refers to stm32f10x_gpio.o(i.GPIO_SetBits) for GPIO_SetBits
    spi_flash.o(i.SpiFlash_Init) refers to stm32f10x_rcc.o(i.RCC_APB1PeriphClockCmd) for RCC_APB1PeriphClockCmd
    spi_flash.o(i.SpiFlash_Init) refers to stm32f10x_spi.o(i.SPI_Init) for SPI_Init
    spi_flash.o(i.SpiFlash_Init) refers to stm32f10x_spi.o(i.SPI_Cmd) for SPI_Cmd
    spi_flash.o(i.SpiFlash_Init) refers to spi_flash.o(i.Spi_WriteRead) for Spi_WriteRead
    spi_flash.o(i.SpiFlash_Init) refers to spi_flash.o(i.Spi_SetSpeed) for Spi_SetSpeed
    spi_flash.o(i.SpiFlash_Init) refers to spi_flash.o(.data) for GPIO_InitStructure
    spi_flash.o(i.SpiFlash_Init) refers to spi_flash.o(.bss) for SPI_InitStructure
    spi_flash.o(i.SpiFlash_Power_Down) refers to stm32f10x_gpio.o(i.GPIO_WriteBit) for GPIO_WriteBit
    spi_flash.o(i.SpiFlash_Power_Down) refers to spi_flash.o(i.Spi_WriteRead) for Spi_WriteRead
    spi_flash.o(i.SpiFlash_Power_Down) refers to systick.o(i.Delay_us) for Delay_us
    spi_flash.o(i.SpiFlash_Read) refers to stm32f10x_gpio.o(i.GPIO_WriteBit) for GPIO_WriteBit
    spi_flash.o(i.SpiFlash_Read) refers to spi_flash.o(i.Spi_WriteRead) for Spi_WriteRead
    spi_flash.o(i.SpiFlash_Read_Char) refers to stm32f10x_gpio.o(i.GPIO_WriteBit) for GPIO_WriteBit
    spi_flash.o(i.SpiFlash_Read_Char) refers to spi_flash.o(i.Spi_WriteRead) for Spi_WriteRead
    spi_flash.o(i.SpiFlash_Read_Char) refers to spi_flash.o(.data) for tmp
    spi_flash.o(i.SpiFlash_Read_Id) refers to stm32f10x_gpio.o(i.GPIO_WriteBit) for GPIO_WriteBit
    spi_flash.o(i.SpiFlash_Read_Id) refers to spi_flash.o(i.Spi_WriteRead) for Spi_WriteRead
    spi_flash.o(i.SpiFlash_Read_SR) refers to stm32f10x_gpio.o(i.GPIO_WriteBit) for GPIO_WriteBit
    spi_flash.o(i.SpiFlash_Read_SR) refers to spi_flash.o(i.Spi_WriteRead) for Spi_WriteRead
    spi_flash.o(i.SpiFlash_Wait_Busy) refers to spi_flash.o(i.SpiFlash_Read_SR) for SpiFlash_Read_SR
    spi_flash.o(i.SpiFlash_Wake_Up) refers to stm32f10x_gpio.o(i.GPIO_WriteBit) for GPIO_WriteBit
    spi_flash.o(i.SpiFlash_Wake_Up) refers to spi_flash.o(i.Spi_WriteRead) for Spi_WriteRead
    spi_flash.o(i.SpiFlash_Wake_Up) refers to systick.o(i.Delay_us) for Delay_us
    spi_flash.o(i.SpiFlash_Write_Char) refers to spi_flash.o(i.SpiFlash_Write_Enable) for SpiFlash_Write_Enable
    spi_flash.o(i.SpiFlash_Write_Char) refers to stm32f10x_gpio.o(i.GPIO_WriteBit) for GPIO_WriteBit
    spi_flash.o(i.SpiFlash_Write_Char) refers to spi_flash.o(i.Spi_WriteRead) for Spi_WriteRead
    spi_flash.o(i.SpiFlash_Write_Char) refers to spi_flash.o(i.SpiFlash_Wait_Busy) for SpiFlash_Wait_Busy
    spi_flash.o(i.SpiFlash_Write_Enable) refers to stm32f10x_gpio.o(i.GPIO_WriteBit) for GPIO_WriteBit
    spi_flash.o(i.SpiFlash_Write_Enable) refers to spi_flash.o(i.Spi_WriteRead) for Spi_WriteRead
    spi_flash.o(i.SpiFlash_Write_No_Check) refers to spi_flash.o(i.SpiFlash_Write_Page) for SpiFlash_Write_Page
    spi_flash.o(i.SpiFlash_Write_Page) refers to spi_flash.o(i.SpiFlash_Write_Enable) for SpiFlash_Write_Enable
    spi_flash.o(i.SpiFlash_Write_Page) refers to stm32f10x_gpio.o(i.GPIO_WriteBit) for GPIO_WriteBit
    spi_flash.o(i.SpiFlash_Write_Page) refers to spi_flash.o(i.Spi_WriteRead) for Spi_WriteRead
    spi_flash.o(i.SpiFlash_Write_Page) refers to spi_flash.o(i.SpiFlash_Wait_Busy) for SpiFlash_Wait_Busy
    spi_flash.o(i.SpiFlash_Write_S) refers to spi_flash.o(i.SpiFlash_Read) for SpiFlash_Read
    spi_flash.o(i.SpiFlash_Write_S) refers to spi_flash.o(i.SpiFlash_Erase_Sector) for SpiFlash_Erase_Sector
    spi_flash.o(i.SpiFlash_Write_S) refers to spi_flash.o(i.SpiFlash_Write_No_Check) for SpiFlash_Write_No_Check
    spi_flash.o(i.SpiFlash_Write_S) refers to spi_flash.o(.bss) for W25Q_BUF
    spi_flash.o(i.SpiFlash_Write_SR) refers to stm32f10x_gpio.o(i.GPIO_WriteBit) for GPIO_WriteBit
    spi_flash.o(i.SpiFlash_Write_SR) refers to spi_flash.o(i.Spi_WriteRead) for Spi_WriteRead
    spi_flash.o(i.SpiFlash_Write_Sector) refers to spi_flash.o(i.SpiFlash_Write_No_Check) for SpiFlash_Write_No_Check
    spi_flash.o(i.Spi_FlashWrite) refers to spi_flash.o(i.SpiFlash_Read) for SpiFlash_Read
    spi_flash.o(i.Spi_FlashWrite) refers to spi_flash.o(i.SpiFlash_Erase_Sector) for SpiFlash_Erase_Sector
    spi_flash.o(i.Spi_FlashWrite) refers to spi_flash.o(i.SpiFlash_Write_Sector) for SpiFlash_Write_Sector
    spi_flash.o(i.Spi_FlashWrite_Disable) refers to stm32f10x_gpio.o(i.GPIO_WriteBit) for GPIO_WriteBit
    spi_flash.o(i.Spi_FlashWrite_Disable) refers to spi_flash.o(i.Spi_WriteRead) for Spi_WriteRead
    spi_flash.o(i.Spi_SetSpeed) refers to stm32f10x_spi.o(i.SPI_Init) for SPI_Init
    spi_flash.o(i.Spi_SetSpeed) refers to stm32f10x_spi.o(i.SPI_Cmd) for SPI_Cmd
    spi_flash.o(i.Spi_SetSpeed) refers to spi_flash.o(.bss) for SPI_InitStructure
    spi_flash.o(i.Spi_WriteRead) refers to stm32f10x_spi.o(i.SPI_I2S_GetFlagStatus) for SPI_I2S_GetFlagStatus
    spi_flash.o(i.Spi_WriteRead) refers to stm32f10x_spi.o(i.SPI_I2S_SendData) for SPI_I2S_SendData
    spi_flash.o(i.Spi_WriteRead) refers to stm32f10x_spi.o(i.SPI_I2S_ReceiveData) for SPI_I2S_ReceiveData
    soft_i2c.o(i.Read) refers to stm32f10x_gpio.o(i.GPIO_Init) for GPIO_Init
    soft_i2c.o(i.Read) refers to stm32f10x_gpio.o(i.GPIO_WriteBit) for GPIO_WriteBit
    soft_i2c.o(i.Read) refers to systick.o(i.Delay_us) for Delay_us
    soft_i2c.o(i.Read) refers to stm32f10x_gpio.o(i.GPIO_ReadInputDataBit) for GPIO_ReadInputDataBit
    soft_i2c.o(i.Send) refers to stm32f10x_gpio.o(i.GPIO_Init) for GPIO_Init
    soft_i2c.o(i.Send) refers to stm32f10x_gpio.o(i.GPIO_WriteBit) for GPIO_WriteBit
    soft_i2c.o(i.Send) refers to systick.o(i.Delay_us) for Delay_us
    soft_i2c.o(i.Send_Ack) refers to stm32f10x_gpio.o(i.GPIO_Init) for GPIO_Init
    soft_i2c.o(i.Send_Ack) refers to stm32f10x_gpio.o(i.GPIO_WriteBit) for GPIO_WriteBit
    soft_i2c.o(i.Send_Ack) refers to systick.o(i.Delay_us) for Delay_us
    soft_i2c.o(i.SoftI2C_init) refers to stm32f10x_rcc.o(i.RCC_APB2PeriphClockCmd) for RCC_APB2PeriphClockCmd
    soft_i2c.o(i.SoftI2C_init) refers to stm32f10x_gpio.o(i.GPIO_Init) for GPIO_Init
    soft_i2c.o(i.SoftI2C_init) refers to stm32f10x_gpio.o(i.GPIO_SetBits) for GPIO_SetBits
    soft_i2c.o(i.SoftI2C_read) refers to soft_i2c.o(i.Start) for Start
    soft_i2c.o(i.SoftI2C_read) refers to soft_i2c.o(i.Send) for Send
    soft_i2c.o(i.SoftI2C_read) refers to soft_i2c.o(i.Wait_Ack) for Wait_Ack
    soft_i2c.o(i.SoftI2C_read) refers to soft_i2c.o(i.Read) for Read
    soft_i2c.o(i.SoftI2C_read) refers to soft_i2c.o(i.Send_Ack) for Send_Ack
    soft_i2c.o(i.SoftI2C_read) refers to soft_i2c.o(i.Stop) for Stop
    soft_i2c.o(i.SoftI2C_write) refers to soft_i2c.o(i.Start) for Start
    soft_i2c.o(i.SoftI2C_write) refers to soft_i2c.o(i.Send) for Send
    soft_i2c.o(i.SoftI2C_write) refers to soft_i2c.o(i.Wait_Ack) for Wait_Ack
    soft_i2c.o(i.SoftI2C_write) refers to soft_i2c.o(i.Stop) for Stop
    soft_i2c.o(i.SoftI2C_write2) refers to soft_i2c.o(i.Start) for Start
    soft_i2c.o(i.SoftI2C_write2) refers to soft_i2c.o(i.Send) for Send
    soft_i2c.o(i.SoftI2C_write2) refers to soft_i2c.o(i.Wait_Ack) for Wait_Ack
    soft_i2c.o(i.SoftI2C_write2) refers to soft_i2c.o(i.Stop) for Stop
    soft_i2c.o(i.Start) refers to stm32f10x_gpio.o(i.GPIO_Init) for GPIO_Init
    soft_i2c.o(i.Start) refers to stm32f10x_gpio.o(i.GPIO_WriteBit) for GPIO_WriteBit
    soft_i2c.o(i.Start) refers to systick.o(i.Delay_us) for Delay_us
    soft_i2c.o(i.Stop) refers to stm32f10x_gpio.o(i.GPIO_Init) for GPIO_Init
    soft_i2c.o(i.Stop) refers to stm32f10x_gpio.o(i.GPIO_WriteBit) for GPIO_WriteBit
    soft_i2c.o(i.Stop) refers to systick.o(i.Delay_us) for Delay_us
    soft_i2c.o(i.Wait_Ack) refers to stm32f10x_gpio.o(i.GPIO_Init) for GPIO_Init
    soft_i2c.o(i.Wait_Ack) refers to stm32f10x_gpio.o(i.GPIO_WriteBit) for GPIO_WriteBit
    soft_i2c.o(i.Wait_Ack) refers to systick.o(i.Delay_us) for Delay_us
    soft_i2c.o(i.Wait_Ack) refers to stm32f10x_gpio.o(i.GPIO_ReadInputDataBit) for GPIO_ReadInputDataBit
    soft_i2c.o(i.Wait_Ack) refers to soft_i2c.o(i.Stop) for Stop
    rcc.o(i.Rcc_Init) refers to stm32f10x_rcc.o(i.RCC_DeInit) for RCC_DeInit
    rcc.o(i.Rcc_Init) refers to stm32f10x_rcc.o(i.RCC_HSEConfig) for RCC_HSEConfig
    rcc.o(i.Rcc_Init) refers to stm32f10x_rcc.o(i.RCC_WaitForHSEStartUp) for RCC_WaitForHSEStartUp
    rcc.o(i.Rcc_Init) refers to stm32f10x_rcc.o(i.RCC_HCLKConfig) for RCC_HCLKConfig
    rcc.o(i.Rcc_Init) refers to stm32f10x_rcc.o(i.RCC_PCLK1Config) for RCC_PCLK1Config
    rcc.o(i.Rcc_Init) refers to stm32f10x_rcc.o(i.RCC_PCLK2Config) for RCC_PCLK2Config
    rcc.o(i.Rcc_Init) refers to stm32f10x_rcc.o(i.RCC_PLLConfig) for RCC_PLLConfig
    rcc.o(i.Rcc_Init) refers to stm32f10x_rcc.o(i.RCC_PLLCmd) for RCC_PLLCmd
    rcc.o(i.Rcc_Init) refers to stm32f10x_rcc.o(i.RCC_GetFlagStatus) for RCC_GetFlagStatus
    rcc.o(i.Rcc_Init) refers to stm32f10x_rcc.o(i.RCC_SYSCLKConfig) for RCC_SYSCLKConfig
    rcc.o(i.Rcc_Init) refers to stm32f10x_rcc.o(i.RCC_GetSYSCLKSource) for RCC_GetSYSCLKSource
    sys.o(i.IWDG_Init) refers to stm32f10x_iwdg.o(i.IWDG_WriteAccessCmd) for IWDG_WriteAccessCmd
    sys.o(i.IWDG_Init) refers to stm32f10x_iwdg.o(i.IWDG_SetPrescaler) for IWDG_SetPrescaler
    sys.o(i.IWDG_Init) refers to stm32f10x_iwdg.o(i.IWDG_SetReload) for IWDG_SetReload
    sys.o(i.IWDG_Init) refers to stm32f10x_iwdg.o(i.IWDG_ReloadCounter) for IWDG_ReloadCounter
    sys.o(i.IWDG_Init) refers to stm32f10x_iwdg.o(i.IWDG_Enable) for IWDG_Enable
    sys.o(i.SWJGpio_Init) refers to stm32f10x_rcc.o(i.RCC_APB2PeriphClockCmd) for RCC_APB2PeriphClockCmd
    sys.o(i.SWJGpio_Init) refers to stm32f10x_gpio.o(i.GPIO_PinRemapConfig) for GPIO_PinRemapConfig
    systick.o(i.Delay_ms) refers to systick.o(i.Delay_us) for Delay_us
    systick.o(i.Millis) refers to systick.o(.data) for systick_ms
    systick.o(i.SysTickInit) refers to system_stm32f10x.o(.data) for SystemCoreClock
    systick.o(i.SysTick_Handler) refers to systick.o(.data) for systick_ms
    timer.o(i.TIM1_IRQHandler) refers to stm32f10x_tim.o(i.TIM_GetITStatus) for TIM_GetITStatus
    timer.o(i.TIM1_IRQHandler) refers to stm32f10x_tim.o(i.TIM_ClearITPendingBit) for TIM_ClearITPendingBit
    timer.o(i.TIM1_IRQHandler) refers to ffixi.o(.text) for __aeabi_f2iz
    timer.o(i.TIM1_IRQHandler) refers to servopid.o(i.Position_PID) for Position_PID
    timer.o(i.TIM1_IRQHandler) refers to fflti.o(.text) for __aeabi_i2f
    timer.o(i.TIM1_IRQHandler) refers to timer.o(.data) for duoji_index2
    timer.o(i.TIM1_IRQHandler) refers to pwmservo.o(.bss) for pid_doing
    timer.o(i.TIM1_Init) refers to stm32f10x_rcc.o(i.RCC_APB1PeriphClockCmd) for RCC_APB1PeriphClockCmd
    timer.o(i.TIM1_Init) refers to stm32f10x_tim.o(i.TIM_TimeBaseInit) for TIM_TimeBaseInit
    timer.o(i.TIM1_Init) refers to stm32f10x_tim.o(i.TIM_ARRPreloadConfig) for TIM_ARRPreloadConfig
    timer.o(i.TIM1_Init) refers to stm32f10x_tim.o(i.TIM_ITConfig) for TIM_ITConfig
    timer.o(i.TIM1_Init) refers to misc.o(i.NVIC_Init) for NVIC_Init
    timer.o(i.TIM1_Init) refers to stm32f10x_tim.o(i.TIM_Cmd) for TIM_Cmd
    timer.o(i.TIM2_IRQHandler) refers to stm32f10x_tim.o(i.TIM_GetITStatus) for TIM_GetITStatus
    timer.o(i.TIM2_IRQHandler) refers to ffixui.o(.text) for __aeabi_f2uiz
    timer.o(i.TIM2_IRQHandler) refers to pwmservo.o(i.PwmServo_PinSet) for PwmServo_PinSet
    timer.o(i.TIM2_IRQHandler) refers to pwmservo.o(i.PwmServo_IncOffset) for PwmServo_IncOffset
    timer.o(i.TIM2_IRQHandler) refers to stm32f10x_tim.o(i.TIM_ClearITPendingBit) for TIM_ClearITPendingBit
    timer.o(i.TIM2_IRQHandler) refers to timer.o(.data) for duoji_index1
    timer.o(i.TIM2_IRQHandler) refers to pwmservo.o(.bss) for duoji_doing
    timer.o(i.TIM2_Init) refers to stm32f10x_rcc.o(i.RCC_APB1PeriphClockCmd) for RCC_APB1PeriphClockCmd
    timer.o(i.TIM2_Init) refers to stm32f10x_tim.o(i.TIM_TimeBaseInit) for TIM_TimeBaseInit
    timer.o(i.TIM2_Init) refers to stm32f10x_tim.o(i.TIM_ARRPreloadConfig) for TIM_ARRPreloadConfig
    timer.o(i.TIM2_Init) refers to stm32f10x_tim.o(i.TIM_ITConfig) for TIM_ITConfig
    timer.o(i.TIM2_Init) refers to misc.o(i.NVIC_Init) for NVIC_Init
    timer.o(i.TIM2_Init) refers to stm32f10x_tim.o(i.TIM_Cmd) for TIM_Cmd
    startup_stm32f10x_md.o(RESET) refers to startup_stm32f10x_md.o(STACK) for __initial_sp
    startup_stm32f10x_md.o(RESET) refers to startup_stm32f10x_md.o(.text) for Reset_Handler
    startup_stm32f10x_md.o(RESET) refers to systick.o(i.SysTick_Handler) for SysTick_Handler
    startup_stm32f10x_md.o(RESET) refers to timer.o(i.TIM2_IRQHandler) for TIM2_IRQHandler
    startup_stm32f10x_md.o(RESET) refers to uart.o(i.USART1_IRQHandler) for USART1_IRQHandler
    startup_stm32f10x_md.o(RESET) refers to uart.o(i.USART2_IRQHandler) for USART2_IRQHandler
    startup_stm32f10x_md.o(RESET) refers to uart.o(i.USART3_IRQHandler) for USART3_IRQHandler
    startup_stm32f10x_md.o(.text) refers to system_stm32f10x.o(i.SystemInit) for SystemInit
    startup_stm32f10x_md.o(.text) refers to entry.o(.ARM.Collect$$$$00000000) for __main
    system_stm32f10x.o(i.SetSysClock) refers to system_stm32f10x.o(i.SetSysClockTo72) for SetSysClockTo72
    system_stm32f10x.o(i.SystemCoreClockUpdate) refers to system_stm32f10x.o(.data) for SystemCoreClock
    system_stm32f10x.o(i.SystemInit) refers to system_stm32f10x.o(i.SetSysClock) for SetSysClock
    stm32f10x_adc.o(i.ADC_DeInit) refers to stm32f10x_rcc.o(i.RCC_APB2PeriphResetCmd) for RCC_APB2PeriphResetCmd
    stm32f10x_bkp.o(i.BKP_DeInit) refers to stm32f10x_rcc.o(i.RCC_BackupResetCmd) for RCC_BackupResetCmd
    stm32f10x_can.o(i.CAN_DeInit) refers to stm32f10x_rcc.o(i.RCC_APB1PeriphResetCmd) for RCC_APB1PeriphResetCmd
    stm32f10x_can.o(i.CAN_GetITStatus) refers to stm32f10x_can.o(i.CheckITStatus) for CheckITStatus
    stm32f10x_cec.o(i.CEC_DeInit) refers to stm32f10x_rcc.o(i.RCC_APB1PeriphResetCmd) for RCC_APB1PeriphResetCmd
    stm32f10x_dac.o(i.DAC_DeInit) refers to stm32f10x_rcc.o(i.RCC_APB1PeriphResetCmd) for RCC_APB1PeriphResetCmd
    stm32f10x_flash.o(i.FLASH_EnableWriteProtection) refers to stm32f10x_flash.o(i.FLASH_WaitForLastOperation) for FLASH_WaitForLastOperation
    stm32f10x_flash.o(i.FLASH_EraseAllBank1Pages) refers to stm32f10x_flash.o(i.FLASH_WaitForLastBank1Operation) for FLASH_WaitForLastBank1Operation
    stm32f10x_flash.o(i.FLASH_EraseAllPages) refers to stm32f10x_flash.o(i.FLASH_WaitForLastOperation) for FLASH_WaitForLastOperation
    stm32f10x_flash.o(i.FLASH_EraseOptionBytes) refers to stm32f10x_flash.o(i.FLASH_GetReadOutProtectionStatus) for FLASH_GetReadOutProtectionStatus
    stm32f10x_flash.o(i.FLASH_EraseOptionBytes) refers to stm32f10x_flash.o(i.FLASH_WaitForLastOperation) for FLASH_WaitForLastOperation
    stm32f10x_flash.o(i.FLASH_ErasePage) refers to stm32f10x_flash.o(i.FLASH_WaitForLastOperation) for FLASH_WaitForLastOperation
    stm32f10x_flash.o(i.FLASH_ProgramHalfWord) refers to stm32f10x_flash.o(i.FLASH_WaitForLastOperation) for FLASH_WaitForLastOperation
    stm32f10x_flash.o(i.FLASH_ProgramOptionByteData) refers to stm32f10x_flash.o(i.FLASH_WaitForLastOperation) for FLASH_WaitForLastOperation
    stm32f10x_flash.o(i.FLASH_ProgramWord) refers to stm32f10x_flash.o(i.FLASH_WaitForLastOperation) for FLASH_WaitForLastOperation
    stm32f10x_flash.o(i.FLASH_ReadOutProtection) refers to stm32f10x_flash.o(i.FLASH_WaitForLastOperation) for FLASH_WaitForLastOperation
    stm32f10x_flash.o(i.FLASH_UserOptionByteConfig) refers to stm32f10x_flash.o(i.FLASH_WaitForLastOperation) for FLASH_WaitForLastOperation
    stm32f10x_flash.o(i.FLASH_WaitForLastBank1Operation) refers to stm32f10x_flash.o(i.FLASH_GetBank1Status) for FLASH_GetBank1Status
    stm32f10x_flash.o(i.FLASH_WaitForLastOperation) refers to stm32f10x_flash.o(i.FLASH_GetBank1Status) for FLASH_GetBank1Status
    stm32f10x_gpio.o(i.GPIO_AFIODeInit) refers to stm32f10x_rcc.o(i.RCC_APB2PeriphResetCmd) for RCC_APB2PeriphResetCmd
    stm32f10x_gpio.o(i.GPIO_DeInit) refers to stm32f10x_rcc.o(i.RCC_APB2PeriphResetCmd) for RCC_APB2PeriphResetCmd
    stm32f10x_i2c.o(i.I2C_DeInit) refers to stm32f10x_rcc.o(i.RCC_APB1PeriphResetCmd) for RCC_APB1PeriphResetCmd
    stm32f10x_i2c.o(i.I2C_Init) refers to stm32f10x_rcc.o(i.RCC_GetClocksFreq) for RCC_GetClocksFreq
    stm32f10x_pwr.o(i.PWR_DeInit) refers to stm32f10x_rcc.o(i.RCC_APB1PeriphResetCmd) for RCC_APB1PeriphResetCmd
    stm32f10x_rcc.o(i.RCC_GetClocksFreq) refers to stm32f10x_rcc.o(.data) for APBAHBPrescTable
    stm32f10x_rcc.o(i.RCC_WaitForHSEStartUp) refers to stm32f10x_rcc.o(i.RCC_GetFlagStatus) for RCC_GetFlagStatus
    stm32f10x_rtc.o(i.RTC_SetAlarm) refers to stm32f10x_rtc.o(i.RTC_EnterConfigMode) for RTC_EnterConfigMode
    stm32f10x_rtc.o(i.RTC_SetAlarm) refers to stm32f10x_rtc.o(i.RTC_ExitConfigMode) for RTC_ExitConfigMode
    stm32f10x_rtc.o(i.RTC_SetCounter) refers to stm32f10x_rtc.o(i.RTC_EnterConfigMode) for RTC_EnterConfigMode
    stm32f10x_rtc.o(i.RTC_SetCounter) refers to stm32f10x_rtc.o(i.RTC_ExitConfigMode) for RTC_ExitConfigMode
    stm32f10x_rtc.o(i.RTC_SetPrescaler) refers to stm32f10x_rtc.o(i.RTC_EnterConfigMode) for RTC_EnterConfigMode
    stm32f10x_rtc.o(i.RTC_SetPrescaler) refers to stm32f10x_rtc.o(i.RTC_ExitConfigMode) for RTC_ExitConfigMode
    stm32f10x_spi.o(i.I2S_Init) refers to stm32f10x_rcc.o(i.RCC_GetClocksFreq) for RCC_GetClocksFreq
    stm32f10x_spi.o(i.SPI_I2S_DeInit) refers to stm32f10x_rcc.o(i.RCC_APB2PeriphResetCmd) for RCC_APB2PeriphResetCmd
    stm32f10x_spi.o(i.SPI_I2S_DeInit) refers to stm32f10x_rcc.o(i.RCC_APB1PeriphResetCmd) for RCC_APB1PeriphResetCmd
    stm32f10x_tim.o(i.TIM_DeInit) refers to stm32f10x_rcc.o(i.RCC_APB2PeriphResetCmd) for RCC_APB2PeriphResetCmd
    stm32f10x_tim.o(i.TIM_DeInit) refers to stm32f10x_rcc.o(i.RCC_APB1PeriphResetCmd) for RCC_APB1PeriphResetCmd
    stm32f10x_tim.o(i.TIM_ETRClockMode1Config) refers to stm32f10x_tim.o(i.TIM_ETRConfig) for TIM_ETRConfig
    stm32f10x_tim.o(i.TIM_ETRClockMode2Config) refers to stm32f10x_tim.o(i.TIM_ETRConfig) for TIM_ETRConfig
    stm32f10x_tim.o(i.TIM_ICInit) refers to stm32f10x_tim.o(i.TI1_Config) for TI1_Config
    stm32f10x_tim.o(i.TIM_ICInit) refers to stm32f10x_tim.o(i.TIM_SetIC1Prescaler) for TIM_SetIC1Prescaler
    stm32f10x_tim.o(i.TIM_ICInit) refers to stm32f10x_tim.o(i.TI2_Config) for TI2_Config
    stm32f10x_tim.o(i.TIM_ICInit) refers to stm32f10x_tim.o(i.TIM_SetIC2Prescaler) for TIM_SetIC2Prescaler
    stm32f10x_tim.o(i.TIM_ICInit) refers to stm32f10x_tim.o(i.TI3_Config) for TI3_Config
    stm32f10x_tim.o(i.TIM_ICInit) refers to stm32f10x_tim.o(i.TIM_SetIC3Prescaler) for TIM_SetIC3Prescaler
    stm32f10x_tim.o(i.TIM_ICInit) refers to stm32f10x_tim.o(i.TI4_Config) for TI4_Config
    stm32f10x_tim.o(i.TIM_ICInit) refers to stm32f10x_tim.o(i.TIM_SetIC4Prescaler) for TIM_SetIC4Prescaler
    stm32f10x_tim.o(i.TIM_ITRxExternalClockConfig) refers to stm32f10x_tim.o(i.TIM_SelectInputTrigger) for TIM_SelectInputTrigger
    stm32f10x_tim.o(i.TIM_PWMIConfig) refers to stm32f10x_tim.o(i.TI1_Config) for TI1_Config
    stm32f10x_tim.o(i.TIM_PWMIConfig) refers to stm32f10x_tim.o(i.TIM_SetIC1Prescaler) for TIM_SetIC1Prescaler
    stm32f10x_tim.o(i.TIM_PWMIConfig) refers to stm32f10x_tim.o(i.TI2_Config) for TI2_Config
    stm32f10x_tim.o(i.TIM_PWMIConfig) refers to stm32f10x_tim.o(i.TIM_SetIC2Prescaler) for TIM_SetIC2Prescaler
    stm32f10x_tim.o(i.TIM_TIxExternalClockConfig) refers to stm32f10x_tim.o(i.TI2_Config) for TI2_Config
    stm32f10x_tim.o(i.TIM_TIxExternalClockConfig) refers to stm32f10x_tim.o(i.TI1_Config) for TI1_Config
    stm32f10x_tim.o(i.TIM_TIxExternalClockConfig) refers to stm32f10x_tim.o(i.TIM_SelectInputTrigger) for TIM_SelectInputTrigger
    stm32f10x_usart.o(i.USART_DeInit) refers to stm32f10x_rcc.o(i.RCC_APB2PeriphResetCmd) for RCC_APB2PeriphResetCmd
    stm32f10x_usart.o(i.USART_DeInit) refers to stm32f10x_rcc.o(i.RCC_APB1PeriphResetCmd) for RCC_APB1PeriphResetCmd
    stm32f10x_usart.o(i.USART_Init) refers to stm32f10x_rcc.o(i.RCC_GetClocksFreq) for RCC_GetClocksFreq
    stm32f10x_wwdg.o(i.WWDG_DeInit) refers to stm32f10x_rcc.o(i.RCC_APB1PeriphResetCmd) for RCC_APB1PeriphResetCmd
    atan2f.o(i.__softfp_atan2f) refers (Special) to iusefp.o(.text) for __I$use$fp
    atan2f.o(i.__softfp_atan2f) refers to atan2f.o(i.atan2f) for atan2f
    atan2f.o(i.atan2f) refers (Special) to iusefp.o(.text) for __I$use$fp
    atan2f.o(i.atan2f) refers to fdiv.o(.text) for __aeabi_fdiv
    atan2f.o(i.atan2f) refers to fpclassifyf.o(i.__ARM_fpclassifyf) for __ARM_fpclassifyf
    atan2f.o(i.atan2f) refers to funder.o(i.__mathlib_flt_underflow) for __mathlib_flt_underflow
    atan2f.o(i.atan2f) refers to errno.o(i.__set_errno) for __set_errno
    atan2f.o(i.atan2f) refers to fadd.o(.text) for __aeabi_fsub
    atan2f.o(i.atan2f) refers to fmul.o(.text) for __aeabi_fmul
    atan2f.o(i.atan2f) refers to funder.o(i.__mathlib_flt_infnan2) for __mathlib_flt_infnan2
    atan2f_x.o(i.____softfp_atan2f$lsc) refers (Special) to iusefp.o(.text) for __I$use$fp
    atan2f_x.o(i.____softfp_atan2f$lsc) refers to atan2f_x.o(i.__atan2f$lsc) for __atan2f$lsc
    atan2f_x.o(i.__atan2f$lsc) refers (Special) to iusefp.o(.text) for __I$use$fp
    atan2f_x.o(i.__atan2f$lsc) refers to fdiv.o(.text) for __aeabi_fdiv
    atan2f_x.o(i.__atan2f$lsc) refers to fpclassifyf.o(i.__ARM_fpclassifyf) for __ARM_fpclassifyf
    atan2f_x.o(i.__atan2f$lsc) refers to errno.o(i.__set_errno) for __set_errno
    atan2f_x.o(i.__atan2f$lsc) refers to fadd.o(.text) for __aeabi_fsub
    atan2f_x.o(i.__atan2f$lsc) refers to fmul.o(.text) for __aeabi_fmul
    atan2f_x.o(i.__atan2f$lsc) refers to funder.o(i.__mathlib_flt_infnan2) for __mathlib_flt_infnan2
    cosf.o(i.__softfp_cosf) refers (Special) to iusefp.o(.text) for __I$use$fp
    cosf.o(i.__softfp_cosf) refers to cosf.o(i.cosf) for cosf
    cosf.o(i.cosf) refers (Special) to iusefp.o(.text) for __I$use$fp
    cosf.o(i.cosf) refers to fmul.o(.text) for __aeabi_fmul
    cosf.o(i.cosf) refers to frnd.o(.text) for _frnd
    cosf.o(i.cosf) refers to ffixi.o(.text) for __aeabi_f2iz
    cosf.o(i.cosf) refers to fadd.o(.text) for __aeabi_frsub
    cosf.o(i.cosf) refers to rredf.o(i.__mathlib_rredf2) for __mathlib_rredf2
    cosf.o(i.cosf) refers to errno.o(i.__set_errno) for __set_errno
    cosf.o(i.cosf) refers to funder.o(i.__mathlib_flt_invalid) for __mathlib_flt_invalid
    cosf.o(i.cosf) refers to funder.o(i.__mathlib_flt_infnan) for __mathlib_flt_infnan
    cosf_x.o(i.____softfp_cosf$lsc) refers (Special) to iusefp.o(.text) for __I$use$fp
    cosf_x.o(i.____softfp_cosf$lsc) refers to cosf_x.o(i.__cosf$lsc) for __cosf$lsc
    cosf_x.o(i.__cosf$lsc) refers (Special) to iusefp.o(.text) for __I$use$fp
    cosf_x.o(i.__cosf$lsc) refers to fmul.o(.text) for __aeabi_fmul
    cosf_x.o(i.__cosf$lsc) refers to frnd.o(.text) for _frnd
    cosf_x.o(i.__cosf$lsc) refers to ffixi.o(.text) for __aeabi_f2iz
    cosf_x.o(i.__cosf$lsc) refers to fadd.o(.text) for __aeabi_frsub
    cosf_x.o(i.__cosf$lsc) refers to rredf.o(i.__mathlib_rredf2) for __mathlib_rredf2
    cosf_x.o(i.__cosf$lsc) refers to errno.o(i.__set_errno) for __set_errno
    cosf_x.o(i.__cosf$lsc) refers to funder.o(i.__mathlib_flt_infnan) for __mathlib_flt_infnan
    fmax.o(i.fmax) refers (Special) to iusefp.o(.text) for __I$use$fp
    fmax.o(i.fmax) refers to dcmp4.o(.text) for __ARM_dcmp4
    sinf.o(i.__softfp_sinf) refers (Special) to iusefp.o(.text) for __I$use$fp
    sinf.o(i.__softfp_sinf) refers to sinf.o(i.sinf) for sinf
    sinf.o(i.sinf) refers (Special) to iusefp.o(.text) for __I$use$fp
    sinf.o(i.sinf) refers to fmul.o(.text) for __aeabi_fmul
    sinf.o(i.sinf) refers to frnd.o(.text) for _frnd
    sinf.o(i.sinf) refers to ffixi.o(.text) for __aeabi_f2iz
    sinf.o(i.sinf) refers to fadd.o(.text) for __aeabi_frsub
    sinf.o(i.sinf) refers to rredf.o(i.__mathlib_rredf2) for __mathlib_rredf2
    sinf.o(i.sinf) refers to fpclassifyf.o(i.__ARM_fpclassifyf) for __ARM_fpclassifyf
    sinf.o(i.sinf) refers to funder.o(i.__mathlib_flt_underflow) for __mathlib_flt_underflow
    sinf.o(i.sinf) refers to errno.o(i.__set_errno) for __set_errno
    sinf.o(i.sinf) refers to funder.o(i.__mathlib_flt_invalid) for __mathlib_flt_invalid
    sinf.o(i.sinf) refers to funder.o(i.__mathlib_flt_infnan) for __mathlib_flt_infnan
    sinf_x.o(i.____softfp_sinf$lsc) refers (Special) to iusefp.o(.text) for __I$use$fp
    sinf_x.o(i.____softfp_sinf$lsc) refers to sinf_x.o(i.__sinf$lsc) for __sinf$lsc
    sinf_x.o(i.__sinf$lsc) refers (Special) to iusefp.o(.text) for __I$use$fp
    sinf_x.o(i.__sinf$lsc) refers to fmul.o(.text) for __aeabi_fmul
    sinf_x.o(i.__sinf$lsc) refers to frnd.o(.text) for _frnd
    sinf_x.o(i.__sinf$lsc) refers to ffixi.o(.text) for __aeabi_f2iz
    sinf_x.o(i.__sinf$lsc) refers to fadd.o(.text) for __aeabi_frsub
    sinf_x.o(i.__sinf$lsc) refers to rredf.o(i.__mathlib_rredf2) for __mathlib_rredf2
    sinf_x.o(i.__sinf$lsc) refers to errno.o(i.__set_errno) for __set_errno
    sinf_x.o(i.__sinf$lsc) refers to funder.o(i.__mathlib_flt_infnan) for __mathlib_flt_infnan
    sqrtf.o(i.__softfp_sqrtf) refers (Special) to iusefp.o(.text) for __I$use$fp
    sqrtf.o(i.__softfp_sqrtf) refers to fsqrt.o(.text) for _fsqrt
    sqrtf.o(i.__softfp_sqrtf) refers to errno.o(i.__set_errno) for __set_errno
    sqrtf.o(i.sqrtf) refers (Special) to iusefp.o(.text) for __I$use$fp
    sqrtf.o(i.sqrtf) refers to fsqrt.o(.text) for _fsqrt
    sqrtf.o(i.sqrtf) refers to errno.o(i.__set_errno) for __set_errno
    sqrtf_x.o(i.____softfp_sqrtf$lsc) refers (Special) to iusefp.o(.text) for __I$use$fp
    sqrtf_x.o(i.____softfp_sqrtf$lsc) refers to errno.o(i.__set_errno) for __set_errno
    sqrtf_x.o(i.____softfp_sqrtf$lsc) refers to fsqrt.o(.text) for _fsqrt
    sqrtf_x.o(i.__sqrtf$lsc) refers (Special) to iusefp.o(.text) for __I$use$fp
    sqrtf_x.o(i.__sqrtf$lsc) refers to errno.o(i.__set_errno) for __set_errno
    sqrtf_x.o(i.__sqrtf$lsc) refers to fsqrt.o(.text) for _fsqrt
    fmin.o(i.fmin) refers (Special) to iusefp.o(.text) for __I$use$fp
    fmin.o(i.fmin) refers to dcmp4.o(.text) for __ARM_dcmp4
    entry.o(.ARM.Collect$$$$00000000) refers (Special) to entry10a.o(.ARM.Collect$$$$0000000F) for __rt_final_cpp
    entry.o(.ARM.Collect$$$$00000000) refers (Special) to entry11a.o(.ARM.Collect$$$$00000011) for __rt_final_exit
    entry.o(.ARM.Collect$$$$00000000) refers (Special) to entry12b.o(.ARM.Collect$$$$0000000E) for __rt_lib_shutdown_fini
    entry.o(.ARM.Collect$$$$00000000) refers (Special) to entry7b.o(.ARM.Collect$$$$00000008) for _main_clock
    entry.o(.ARM.Collect$$$$00000000) refers (Special) to entry8b.o(.ARM.Collect$$$$0000000A) for _main_cpp_init
    entry.o(.ARM.Collect$$$$00000000) refers (Special) to entry9a.o(.ARM.Collect$$$$0000000B) for _main_init
    entry.o(.ARM.Collect$$$$00000000) refers (Special) to entry5.o(.ARM.Collect$$$$00000004) for _main_scatterload
    entry.o(.ARM.Collect$$$$00000000) refers (Special) to entry2.o(.ARM.Collect$$$$00000001) for _main_stk
    printfb.o(i.__0fprintf$bare) refers to printfb.o(i._printf_core) for _printf_core
    printfb.o(i.__0fprintf$bare) refers to uart.o(i.fputc) for fputc
    printfb.o(i.__0printf$bare) refers to printfb.o(i._printf_core) for _printf_core
    printfb.o(i.__0printf$bare) refers to uart.o(i.fputc) for fputc
    printfb.o(i.__0printf$bare) refers to stdout.o(.data) for __stdout
    printfb.o(i.__0snprintf$bare) refers to printfb.o(i._printf_core) for _printf_core
    printfb.o(i.__0snprintf$bare) refers to printfb.o(i._snputc) for _snputc
    printfb.o(i.__0sprintf$bare) refers to printfb.o(i._printf_core) for _printf_core
    printfb.o(i.__0sprintf$bare) refers to printfb.o(i._sputc) for _sputc
    printfb.o(i.__0vfprintf$bare) refers to printfb.o(i._printf_core) for _printf_core
    printfb.o(i.__0vfprintf$bare) refers to uart.o(i.fputc) for fputc
    printfb.o(i.__0vprintf$bare) refers to printfb.o(i._printf_core) for _printf_core
    printfb.o(i.__0vprintf$bare) refers to uart.o(i.fputc) for fputc
    printfb.o(i.__0vprintf$bare) refers to stdout.o(.data) for __stdout
    printfb.o(i.__0vsnprintf$bare) refers to printfb.o(i._printf_core) for _printf_core
    printfb.o(i.__0vsnprintf$bare) refers to printfb.o(i._snputc) for _snputc
    printfb.o(i.__0vsprintf$bare) refers to printfb.o(i._printf_core) for _printf_core
    printfb.o(i.__0vsprintf$bare) refers to printfb.o(i._sputc) for _sputc
    printf0.o(i.__0fprintf$0) refers to printf0.o(i._printf_core) for _printf_core
    printf0.o(i.__0fprintf$0) refers to uart.o(i.fputc) for fputc
    printf0.o(i.__0printf$0) refers to printf0.o(i._printf_core) for _printf_core
    printf0.o(i.__0printf$0) refers to uart.o(i.fputc) for fputc
    printf0.o(i.__0printf$0) refers to stdout.o(.data) for __stdout
    printf0.o(i.__0snprintf$0) refers to printf0.o(i._printf_core) for _printf_core
    printf0.o(i.__0snprintf$0) refers to printf0.o(i._snputc) for _snputc
    printf0.o(i.__0sprintf$0) refers to printf0.o(i._printf_core) for _printf_core
    printf0.o(i.__0sprintf$0) refers to printf0.o(i._sputc) for _sputc
    printf0.o(i.__0vfprintf$0) refers to printf0.o(i._printf_core) for _printf_core
    printf0.o(i.__0vfprintf$0) refers to uart.o(i.fputc) for fputc
    printf0.o(i.__0vprintf$0) refers to printf0.o(i._printf_core) for _printf_core
    printf0.o(i.__0vprintf$0) refers to uart.o(i.fputc) for fputc
    printf0.o(i.__0vprintf$0) refers to stdout.o(.data) for __stdout
    printf0.o(i.__0vsnprintf$0) refers to printf0.o(i._printf_core) for _printf_core
    printf0.o(i.__0vsnprintf$0) refers to printf0.o(i._snputc) for _snputc
    printf0.o(i.__0vsprintf$0) refers to printf0.o(i._printf_core) for _printf_core
    printf0.o(i.__0vsprintf$0) refers to printf0.o(i._sputc) for _sputc
    printf1.o(i.__0fprintf$1) refers to printf1.o(i._printf_core) for _printf_core
    printf1.o(i.__0fprintf$1) refers to uart.o(i.fputc) for fputc
    printf1.o(i.__0printf$1) refers to printf1.o(i._printf_core) for _printf_core
    printf1.o(i.__0printf$1) refers to uart.o(i.fputc) for fputc
    printf1.o(i.__0printf$1) refers to stdout.o(.data) for __stdout
    printf1.o(i.__0snprintf$1) refers to printf1.o(i._printf_core) for _printf_core
    printf1.o(i.__0snprintf$1) refers to printf1.o(i._snputc) for _snputc
    printf1.o(i.__0sprintf$1) refers to printf1.o(i._printf_core) for _printf_core
    printf1.o(i.__0sprintf$1) refers to printf1.o(i._sputc) for _sputc
    printf1.o(i.__0vfprintf$1) refers to printf1.o(i._printf_core) for _printf_core
    printf1.o(i.__0vfprintf$1) refers to uart.o(i.fputc) for fputc
    printf1.o(i.__0vprintf$1) refers to printf1.o(i._printf_core) for _printf_core
    printf1.o(i.__0vprintf$1) refers to uart.o(i.fputc) for fputc
    printf1.o(i.__0vprintf$1) refers to stdout.o(.data) for __stdout
    printf1.o(i.__0vsnprintf$1) refers to printf1.o(i._printf_core) for _printf_core
    printf1.o(i.__0vsnprintf$1) refers to printf1.o(i._snputc) for _snputc
    printf1.o(i.__0vsprintf$1) refers to printf1.o(i._printf_core) for _printf_core
    printf1.o(i.__0vsprintf$1) refers to printf1.o(i._sputc) for _sputc
    printf1.o(i._printf_core) refers to uidiv.o(.text) for __aeabi_uidivmod
    printf2.o(i.__0fprintf$2) refers to printf2.o(i._printf_core) for _printf_core
    printf2.o(i.__0fprintf$2) refers to uart.o(i.fputc) for fputc
    printf2.o(i.__0printf$2) refers to printf2.o(i._printf_core) for _printf_core
    printf2.o(i.__0printf$2) refers to uart.o(i.fputc) for fputc
    printf2.o(i.__0printf$2) refers to stdout.o(.data) for __stdout
    printf2.o(i.__0snprintf$2) refers to printf2.o(i._printf_core) for _printf_core
    printf2.o(i.__0snprintf$2) refers to printf2.o(i._snputc) for _snputc
    printf2.o(i.__0sprintf$2) refers to printf2.o(i._printf_core) for _printf_core
    printf2.o(i.__0sprintf$2) refers to printf2.o(i._sputc) for _sputc
    printf2.o(i.__0vfprintf$2) refers to printf2.o(i._printf_core) for _printf_core
    printf2.o(i.__0vfprintf$2) refers to uart.o(i.fputc) for fputc
    printf2.o(i.__0vprintf$2) refers to printf2.o(i._printf_core) for _printf_core
    printf2.o(i.__0vprintf$2) refers to uart.o(i.fputc) for fputc
    printf2.o(i.__0vprintf$2) refers to stdout.o(.data) for __stdout
    printf2.o(i.__0vsnprintf$2) refers to printf2.o(i._printf_core) for _printf_core
    printf2.o(i.__0vsnprintf$2) refers to printf2.o(i._snputc) for _snputc
    printf2.o(i.__0vsprintf$2) refers to printf2.o(i._printf_core) for _printf_core
    printf2.o(i.__0vsprintf$2) refers to printf2.o(i._sputc) for _sputc
    printf3.o(i.__0fprintf$3) refers to printf3.o(i._printf_core) for _printf_core
    printf3.o(i.__0fprintf$3) refers to uart.o(i.fputc) for fputc
    printf3.o(i.__0printf$3) refers to printf3.o(i._printf_core) for _printf_core
    printf3.o(i.__0printf$3) refers to uart.o(i.fputc) for fputc
    printf3.o(i.__0printf$3) refers to stdout.o(.data) for __stdout
    printf3.o(i.__0snprintf$3) refers to printf3.o(i._printf_core) for _printf_core
    printf3.o(i.__0snprintf$3) refers to printf3.o(i._snputc) for _snputc
    printf3.o(i.__0sprintf$3) refers to printf3.o(i._printf_core) for _printf_core
    printf3.o(i.__0sprintf$3) refers to printf3.o(i._sputc) for _sputc
    printf3.o(i.__0vfprintf$3) refers to printf3.o(i._printf_core) for _printf_core
    printf3.o(i.__0vfprintf$3) refers to uart.o(i.fputc) for fputc
    printf3.o(i.__0vprintf$3) refers to printf3.o(i._printf_core) for _printf_core
    printf3.o(i.__0vprintf$3) refers to uart.o(i.fputc) for fputc
    printf3.o(i.__0vprintf$3) refers to stdout.o(.data) for __stdout
    printf3.o(i.__0vsnprintf$3) refers to printf3.o(i._printf_core) for _printf_core
    printf3.o(i.__0vsnprintf$3) refers to printf3.o(i._snputc) for _snputc
    printf3.o(i.__0vsprintf$3) refers to printf3.o(i._printf_core) for _printf_core
    printf3.o(i.__0vsprintf$3) refers to printf3.o(i._sputc) for _sputc
    printf3.o(i._printf_core) refers to uidiv.o(.text) for __aeabi_uidivmod
    printf4.o(i.__0fprintf$4) refers to printf4.o(i._printf_core) for _printf_core
    printf4.o(i.__0fprintf$4) refers to uart.o(i.fputc) for fputc
    printf4.o(i.__0printf$4) refers to printf4.o(i._printf_core) for _printf_core
    printf4.o(i.__0printf$4) refers to uart.o(i.fputc) for fputc
    printf4.o(i.__0printf$4) refers to stdout.o(.data) for __stdout
    printf4.o(i.__0snprintf$4) refers to printf4.o(i._printf_core) for _printf_core
    printf4.o(i.__0snprintf$4) refers to printf4.o(i._snputc) for _snputc
    printf4.o(i.__0sprintf$4) refers to printf4.o(i._printf_core) for _printf_core
    printf4.o(i.__0sprintf$4) refers to printf4.o(i._sputc) for _sputc
    printf4.o(i.__0vfprintf$4) refers to printf4.o(i._printf_core) for _printf_core
    printf4.o(i.__0vfprintf$4) refers to uart.o(i.fputc) for fputc
    printf4.o(i.__0vprintf$4) refers to printf4.o(i._printf_core) for _printf_core
    printf4.o(i.__0vprintf$4) refers to uart.o(i.fputc) for fputc
    printf4.o(i.__0vprintf$4) refers to stdout.o(.data) for __stdout
    printf4.o(i.__0vsnprintf$4) refers to printf4.o(i._printf_core) for _printf_core
    printf4.o(i.__0vsnprintf$4) refers to printf4.o(i._snputc) for _snputc
    printf4.o(i.__0vsprintf$4) refers to printf4.o(i._printf_core) for _printf_core
    printf4.o(i.__0vsprintf$4) refers to printf4.o(i._sputc) for _sputc
    printf4.o(i._printf_core) refers to uldiv.o(.text) for __aeabi_uldivmod
    printf5.o(i.__0fprintf$5) refers to printf5.o(i._printf_core) for _printf_core
    printf5.o(i.__0fprintf$5) refers to uart.o(i.fputc) for fputc
    printf5.o(i.__0printf$5) refers to printf5.o(i._printf_core) for _printf_core
    printf5.o(i.__0printf$5) refers to uart.o(i.fputc) for fputc
    printf5.o(i.__0printf$5) refers to stdout.o(.data) for __stdout
    printf5.o(i.__0snprintf$5) refers to printf5.o(i._printf_core) for _printf_core
    printf5.o(i.__0snprintf$5) refers to printf5.o(i._snputc) for _snputc
    printf5.o(i.__0sprintf$5) refers to printf5.o(i._printf_core) for _printf_core
    printf5.o(i.__0sprintf$5) refers to printf5.o(i._sputc) for _sputc
    printf5.o(i.__0vfprintf$5) refers to printf5.o(i._printf_core) for _printf_core
    printf5.o(i.__0vfprintf$5) refers to uart.o(i.fputc) for fputc
    printf5.o(i.__0vprintf$5) refers to printf5.o(i._printf_core) for _printf_core
    printf5.o(i.__0vprintf$5) refers to uart.o(i.fputc) for fputc
    printf5.o(i.__0vprintf$5) refers to stdout.o(.data) for __stdout
    printf5.o(i.__0vsnprintf$5) refers to printf5.o(i._printf_core) for _printf_core
    printf5.o(i.__0vsnprintf$5) refers to printf5.o(i._snputc) for _snputc
    printf5.o(i.__0vsprintf$5) refers to printf5.o(i._printf_core) for _printf_core
    printf5.o(i.__0vsprintf$5) refers to printf5.o(i._sputc) for _sputc
    printf5.o(i._printf_core) refers to uldiv.o(.text) for __aeabi_uldivmod
    printf6.o(i.__0fprintf$6) refers to printf6.o(i._printf_core) for _printf_core
    printf6.o(i.__0fprintf$6) refers to uart.o(i.fputc) for fputc
    printf6.o(i.__0printf$6) refers to printf6.o(i._printf_core) for _printf_core
    printf6.o(i.__0printf$6) refers to uart.o(i.fputc) for fputc
    printf6.o(i.__0printf$6) refers to stdout.o(.data) for __stdout
    printf6.o(i.__0snprintf$6) refers to printf6.o(i._printf_core) for _printf_core
    printf6.o(i.__0snprintf$6) refers to printf6.o(i._snputc) for _snputc
    printf6.o(i.__0sprintf$6) refers to printf6.o(i._printf_core) for _printf_core
    printf6.o(i.__0sprintf$6) refers to printf6.o(i._sputc) for _sputc
    printf6.o(i.__0vfprintf$6) refers to printf6.o(i._printf_core) for _printf_core
    printf6.o(i.__0vfprintf$6) refers to uart.o(i.fputc) for fputc
    printf6.o(i.__0vprintf$6) refers to printf6.o(i._printf_core) for _printf_core
    printf6.o(i.__0vprintf$6) refers to uart.o(i.fputc) for fputc
    printf6.o(i.__0vprintf$6) refers to stdout.o(.data) for __stdout
    printf6.o(i.__0vsnprintf$6) refers to printf6.o(i._printf_core) for _printf_core
    printf6.o(i.__0vsnprintf$6) refers to printf6.o(i._snputc) for _snputc
    printf6.o(i.__0vsprintf$6) refers to printf6.o(i._printf_core) for _printf_core
    printf6.o(i.__0vsprintf$6) refers to printf6.o(i._sputc) for _sputc
    printf6.o(i._printf_core) refers to printf6.o(i._printf_pre_padding) for _printf_pre_padding
    printf6.o(i._printf_core) refers to uidiv.o(.text) for __aeabi_uidivmod
    printf6.o(i._printf_core) refers to printf6.o(i._printf_post_padding) for _printf_post_padding
    printf7.o(i.__0fprintf$7) refers to printf7.o(i._printf_core) for _printf_core
    printf7.o(i.__0fprintf$7) refers to uart.o(i.fputc) for fputc
    printf7.o(i.__0printf$7) refers to printf7.o(i._printf_core) for _printf_core
    printf7.o(i.__0printf$7) refers to uart.o(i.fputc) for fputc
    printf7.o(i.__0printf$7) refers to stdout.o(.data) for __stdout
    printf7.o(i.__0snprintf$7) refers to printf7.o(i._printf_core) for _printf_core
    printf7.o(i.__0snprintf$7) refers to printf7.o(i._snputc) for _snputc
    printf7.o(i.__0sprintf$7) refers to printf7.o(i._printf_core) for _printf_core
    printf7.o(i.__0sprintf$7) refers to printf7.o(i._sputc) for _sputc
    printf7.o(i.__0vfprintf$7) refers to printf7.o(i._printf_core) for _printf_core
    printf7.o(i.__0vfprintf$7) refers to uart.o(i.fputc) for fputc
    printf7.o(i.__0vprintf$7) refers to printf7.o(i._printf_core) for _printf_core
    printf7.o(i.__0vprintf$7) refers to uart.o(i.fputc) for fputc
    printf7.o(i.__0vprintf$7) refers to stdout.o(.data) for __stdout
    printf7.o(i.__0vsnprintf$7) refers to printf7.o(i._printf_core) for _printf_core
    printf7.o(i.__0vsnprintf$7) refers to printf7.o(i._snputc) for _snputc
    printf7.o(i.__0vsprintf$7) refers to printf7.o(i._printf_core) for _printf_core
    printf7.o(i.__0vsprintf$7) refers to printf7.o(i._sputc) for _sputc
    printf7.o(i._printf_core) refers to printf7.o(i._printf_pre_padding) for _printf_pre_padding
    printf7.o(i._printf_core) refers to uldiv.o(.text) for __aeabi_uldivmod
    printf7.o(i._printf_core) refers to printf7.o(i._printf_post_padding) for _printf_post_padding
    printf8.o(i.__0fprintf$8) refers to printf8.o(i._printf_core) for _printf_core
    printf8.o(i.__0fprintf$8) refers to uart.o(i.fputc) for fputc
    printf8.o(i.__0printf$8) refers to printf8.o(i._printf_core) for _printf_core
    printf8.o(i.__0printf$8) refers to uart.o(i.fputc) for fputc
    printf8.o(i.__0printf$8) refers to stdout.o(.data) for __stdout
    printf8.o(i.__0snprintf$8) refers to printf8.o(i._printf_core) for _printf_core
    printf8.o(i.__0snprintf$8) refers to printf8.o(i._snputc) for _snputc
    printf8.o(i.__0sprintf$8) refers to printf8.o(i._printf_core) for _printf_core
    printf8.o(i.__0sprintf$8) refers to printf8.o(i._sputc) for _sputc
    printf8.o(i.__0vfprintf$8) refers to printf8.o(i._printf_core) for _printf_core
    printf8.o(i.__0vfprintf$8) refers to uart.o(i.fputc) for fputc
    printf8.o(i.__0vprintf$8) refers to printf8.o(i._printf_core) for _printf_core
    printf8.o(i.__0vprintf$8) refers to uart.o(i.fputc) for fputc
    printf8.o(i.__0vprintf$8) refers to stdout.o(.data) for __stdout
    printf8.o(i.__0vsnprintf$8) refers to printf8.o(i._printf_core) for _printf_core
    printf8.o(i.__0vsnprintf$8) refers to printf8.o(i._snputc) for _snputc
    printf8.o(i.__0vsprintf$8) refers to printf8.o(i._printf_core) for _printf_core
    printf8.o(i.__0vsprintf$8) refers to printf8.o(i._sputc) for _sputc
    printf8.o(i._printf_core) refers to printf8.o(i._printf_pre_padding) for _printf_pre_padding
    printf8.o(i._printf_core) refers to uldiv.o(.text) for __aeabi_uldivmod
    printf8.o(i._printf_core) refers to printf8.o(i._printf_post_padding) for _printf_post_padding
    printfa.o(i.__0fprintf) refers (Special) to iusefp.o(.text) for __I$use$fp
    printfa.o(i.__0fprintf) refers to printfa.o(i._printf_core) for _printf_core
    printfa.o(i.__0fprintf) refers to uart.o(i.fputc) for fputc
    printfa.o(i.__0printf) refers (Special) to iusefp.o(.text) for __I$use$fp
    printfa.o(i.__0printf) refers to printfa.o(i._printf_core) for _printf_core
    printfa.o(i.__0printf) refers to uart.o(i.fputc) for fputc
    printfa.o(i.__0printf) refers to stdout.o(.data) for __stdout
    printfa.o(i.__0snprintf) refers (Special) to iusefp.o(.text) for __I$use$fp
    printfa.o(i.__0snprintf) refers to printfa.o(i._printf_core) for _printf_core
    printfa.o(i.__0snprintf) refers to printfa.o(i._snputc) for _snputc
    printfa.o(i.__0sprintf) refers (Special) to iusefp.o(.text) for __I$use$fp
    printfa.o(i.__0sprintf) refers to printfa.o(i._printf_core) for _printf_core
    printfa.o(i.__0sprintf) refers to printfa.o(i._sputc) for _sputc
    printfa.o(i.__0vfprintf) refers (Special) to iusefp.o(.text) for __I$use$fp
    printfa.o(i.__0vfprintf) refers to printfa.o(i._printf_core) for _printf_core
    printfa.o(i.__0vfprintf) refers to uart.o(i.fputc) for fputc
    printfa.o(i.__0vprintf) refers (Special) to iusefp.o(.text) for __I$use$fp
    printfa.o(i.__0vprintf) refers to printfa.o(i._printf_core) for _printf_core
    printfa.o(i.__0vprintf) refers to uart.o(i.fputc) for fputc
    printfa.o(i.__0vprintf) refers to stdout.o(.data) for __stdout
    printfa.o(i.__0vsnprintf) refers (Special) to iusefp.o(.text) for __I$use$fp
    printfa.o(i.__0vsnprintf) refers to printfa.o(i._printf_core) for _printf_core
    printfa.o(i.__0vsnprintf) refers to printfa.o(i._snputc) for _snputc
    printfa.o(i.__0vsprintf) refers (Special) to iusefp.o(.text) for __I$use$fp
    printfa.o(i.__0vsprintf) refers to printfa.o(i._printf_core) for _printf_core
    printfa.o(i.__0vsprintf) refers to printfa.o(i._sputc) for _sputc
    printfa.o(i._fp_digits) refers (Special) to iusefp.o(.text) for __I$use$fp
    printfa.o(i._fp_digits) refers to dmul.o(.text) for __aeabi_dmul
    printfa.o(i._fp_digits) refers to ddiv.o(.text) for __aeabi_ddiv
    printfa.o(i._fp_digits) refers to cdrcmple.o(.text) for __aeabi_cdrcmple
    printfa.o(i._fp_digits) refers to dadd.o(.text) for __aeabi_dadd
    printfa.o(i._fp_digits) refers to dfixul.o(.text) for __aeabi_d2ulz
    printfa.o(i._fp_digits) refers to uldiv.o(.text) for __aeabi_uldivmod
    printfa.o(i._printf_core) refers (Special) to iusefp.o(.text) for __I$use$fp
    printfa.o(i._printf_core) refers to printfa.o(i._printf_pre_padding) for _printf_pre_padding
    printfa.o(i._printf_core) refers to uldiv.o(.text) for __aeabi_uldivmod
    printfa.o(i._printf_core) refers to printfa.o(i._printf_post_padding) for _printf_post_padding
    printfa.o(i._printf_core) refers to printfa.o(i._fp_digits) for _fp_digits
    printfa.o(i._printf_core) refers to uidiv.o(.text) for __aeabi_uidivmod
    printfa.o(i._printf_post_padding) refers (Special) to iusefp.o(.text) for __I$use$fp
    printfa.o(i._printf_pre_padding) refers (Special) to iusefp.o(.text) for __I$use$fp
    printfa.o(i._snputc) refers (Special) to iusefp.o(.text) for __I$use$fp
    printfa.o(i._sputc) refers (Special) to iusefp.o(.text) for __I$use$fp
    __0sscanf.o(.text) refers to scanf_char.o(.text) for __vfscanf_char
    __0sscanf.o(.text) refers to _sgetc.o(.text) for _sgetc
    _scanf_int.o(.text) refers to _chval.o(.text) for _chval
    scanf_fp.o(.text) refers (Special) to iusefp.o(.text) for __I$use$fp
    scanf_fp.o(.text) refers to dfltul.o(.text) for __aeabi_ul2d
    scanf_fp.o(.text) refers to dmul.o(.text) for __aeabi_dmul
    scanf_fp.o(.text) refers to ddiv.o(.text) for __aeabi_ddiv
    scanf_fp.o(.text) refers to scanf_fp.o(i._is_digit) for _is_digit
    scanf_fp.o(.text) refers to d2f.o(.text) for __aeabi_d2f
    fadd.o(.text) refers (Special) to iusefp.o(.text) for __I$use$fp
    fadd.o(.text) refers to fepilogue.o(.text) for _float_epilogue
    fmul.o(.text) refers (Special) to iusefp.o(.text) for __I$use$fp
    fdiv.o(.text) refers (Special) to iusefp.o(.text) for __I$use$fp
    fdiv.o(.text) refers to fepilogue.o(.text) for _float_round
    dadd.o(.text) refers (Special) to iusefp.o(.text) for __I$use$fp
    dadd.o(.text) refers to llshl.o(.text) for __aeabi_llsl
    dadd.o(.text) refers to llsshr.o(.text) for __aeabi_lasr
    dadd.o(.text) refers to depilogue.o(.text) for _double_epilogue
    dmul.o(.text) refers (Special) to iusefp.o(.text) for __I$use$fp
    dmul.o(.text) refers to depilogue.o(.text) for _double_epilogue
    ddiv.o(.text) refers (Special) to iusefp.o(.text) for __I$use$fp
    ddiv.o(.text) refers to depilogue.o(.text) for _double_round
    fflti.o(.text) refers (Special) to iusefp.o(.text) for __I$use$fp
    fflti.o(.text) refers to fepilogue.o(.text) for _float_epilogue
    ffltui.o(.text) refers (Special) to iusefp.o(.text) for __I$use$fp
    ffltui.o(.text) refers to fepilogue.o(.text) for _float_epilogue
    dfltui.o(.text) refers (Special) to iusefp.o(.text) for __I$use$fp
    dfltui.o(.text) refers to depilogue.o(.text) for _double_epilogue
    ffixi.o(.text) refers (Special) to iusefp.o(.text) for __I$use$fp
    ffixui.o(.text) refers (Special) to iusefp.o(.text) for __I$use$fp
    f2d.o(.text) refers (Special) to iusefp.o(.text) for __I$use$fp
    d2f.o(.text) refers (Special) to iusefp.o(.text) for __I$use$fp
    d2f.o(.text) refers to fepilogue.o(.text) for _float_round
    cfcmple.o(.text) refers (Special) to iusefp.o(.text) for __I$use$fp
    cfrcmple.o(.text) refers (Special) to iusefp.o(.text) for __I$use$fp
    fpclassifyf.o(i.__ARM_fpclassifyf) refers (Special) to iusefp.o(.text) for __I$use$fp
    funder.o(i.__mathlib_flt_divzero) refers to fdiv.o(.text) for __aeabi_fdiv
    funder.o(i.__mathlib_flt_infnan) refers to fscalb.o(.text) for __ARM_scalbnf
    funder.o(i.__mathlib_flt_infnan2) refers to fadd.o(.text) for __aeabi_fadd
    funder.o(i.__mathlib_flt_invalid) refers to fdiv.o(.text) for __aeabi_fdiv
    funder.o(i.__mathlib_flt_overflow) refers to fscalb.o(.text) for __ARM_scalbnf
    funder.o(i.__mathlib_flt_posinfnan) refers to fmul.o(.text) for __aeabi_fmul
    funder.o(i.__mathlib_flt_underflow) refers to fscalb.o(.text) for __ARM_scalbnf
    rredf.o(i.__mathlib_rredf2) refers (Special) to iusefp.o(.text) for __I$use$fp
    rredf.o(i.__mathlib_rredf2) refers to fflti.o(.text) for __aeabi_i2f
    rredf.o(i.__mathlib_rredf2) refers to ffltui.o(.text) for __aeabi_ui2f
    rredf.o(i.__mathlib_rredf2) refers to fscalb.o(.text) for __ARM_scalbnf
    rredf.o(i.__mathlib_rredf2) refers to fadd.o(.text) for __aeabi_fadd
    rredf.o(i.__mathlib_rredf2) refers to fmul.o(.text) for __aeabi_fmul
    rredf.o(i.__mathlib_rredf2) refers to rredf.o(.constdata) for .constdata
    rredf.o(.constdata) refers (Special) to iusefp.o(.text) for __I$use$fp
    entry2.o(.ARM.Collect$$$$00000001) refers to entry2.o(.ARM.Collect$$$$00002712) for __lit__00000000
    entry2.o(.ARM.Collect$$$$00002712) refers to startup_stm32f10x_md.o(STACK) for __initial_sp
    entry2.o(__vectab_stack_and_reset_area) refers to startup_stm32f10x_md.o(STACK) for __initial_sp
    entry2.o(__vectab_stack_and_reset_area) refers to entry.o(.ARM.Collect$$$$00000000) for __main
    entry5.o(.ARM.Collect$$$$00000004) refers to init.o(.text) for __scatterload
    entry9a.o(.ARM.Collect$$$$0000000B) refers to main.o(i.main) for main
    entry9b.o(.ARM.Collect$$$$0000000C) refers to main.o(i.main) for main
    uldiv.o(.text) refers to llushr.o(.text) for __aeabi_llsr
    uldiv.o(.text) refers to llshl.o(.text) for __aeabi_llsl
    errno.o(i.__aeabi_errno_addr) refers to errno.o(.data) for .data
    errno.o(i.__read_errno) refers to errno.o(.data) for .data
    errno.o(i.__set_errno) refers to errno.o(.data) for .data
    scanf_char.o(.text) refers to _scanf.o(.text) for __vfscanf
    scanf_char.o(.text) refers to isspace_c.o(.text) for isspace
    fsqrt.o(.text) refers to fepilogue.o(.text) for _float_round
    frnd.o(.text) refers to fepilogue.o(.text) for _float_round
    depilogue.o(.text) refers to llshl.o(.text) for __aeabi_llsl
    depilogue.o(.text) refers to llushr.o(.text) for __aeabi_llsr
    dfltul.o(.text) refers to depilogue.o(.text) for _double_epilogue
    dfixul.o(.text) refers to llushr.o(.text) for __aeabi_llsr
    dfixul.o(.text) refers to llshl.o(.text) for __aeabi_llsl
    init.o(.text) refers to entry5.o(.ARM.Collect$$$$00000004) for __main_after_scatterload
    isspace_c.o(.text) refers to ctype_c.o(.text) for __ctype_lookup
    _scanf.o(.text) refers (Weak) to scanf_fp.o(.text) for _scanf_real
    _scanf.o(.text) refers (Weak) to _scanf_int.o(.text) for _scanf_int
    _scanf.o(.text) refers (Weak) to _scanf_str.o(.text) for _scanf_string
    ctype_c.o(.text) refers to ctype_c.o(.constdata) for .constdata
    scanf_fp.o(i._is_digit) refers (Special) to iusefp.o(.text) for __I$use$fp


==============================================================================

Removing Unused input sections from the image.

    Removing global.o(i.Int_Exchange), (10 bytes).
    Removing global.o(i.Selection_Sort), (64 bytes).
    Removing global.o(i.abs_int), (14 bytes).
    Removing global.o(i.map), (72 bytes).
    Removing app_ps2.o(i.AppPs2Init), (8 bytes).
    Removing servopid.o(i.Position_PID), (184 bytes).
    Removing servopid.o(i.Set_PwmServo), (132 bytes).
    Removing servopid.o(.data), (28 bytes).
    Removing oled.o(i.OLED_Display_Off), (28 bytes).
    Removing oled.o(i.OLED_Display_On), (28 bytes).
    Removing oled.o(i.OLED_DrawBMP), (76 bytes).
    Removing oled.o(i.OLED_Fill), (66 bytes).
    Removing oled.o(i.OLED_Pow), (22 bytes).
    Removing oled.o(i.OLED_ShowNum), (136 bytes).
    Removing oled.o(i.OLED_ShowString), (58 bytes).
    Removing pwmservo.o(i.PwmServo_BiasSet), (36 bytes).
    Removing key.o(i.Key_Scan), (60 bytes).
    Removing key.o(i.Touch_Key_Scan), (60 bytes).
    Removing key.o(.data), (4 bytes).
    Removing spi_flash.o(i.SpiFlash_Erase_Chip), (48 bytes).
    Removing spi_flash.o(i.SpiFlash_Power_Down), (44 bytes).
    Removing spi_flash.o(i.SpiFlash_Read_Char), (80 bytes).
    Removing spi_flash.o(i.SpiFlash_Read_Id), (76 bytes).
    Removing spi_flash.o(i.SpiFlash_Wake_Up), (44 bytes).
    Removing spi_flash.o(i.SpiFlash_Write_Char), (76 bytes).
    Removing spi_flash.o(i.SpiFlash_Write_SR), (44 bytes).
    Removing spi_flash.o(i.SpiFlash_Write_Sector), (38 bytes).
    Removing spi_flash.o(i.Spi_FlashWrite), (188 bytes).
    Removing spi_flash.o(i.Spi_FlashWrite_Disable), (36 bytes).
    Removing soft_i2c.o(i.SoftI2C_write2), (94 bytes).
    Removing sys.o(i.IWDG_Init), (34 bytes).
    Removing systick.o(i.Delay_ns), (14 bytes).
    Removing timer.o(i.TIM1_IRQHandler), (120 bytes).
    Removing core_cm3.o(.emb_text), (32 bytes).
    Removing startup_stm32f10x_md.o(HEAP), (512 bytes).
    Removing system_stm32f10x.o(i.SystemCoreClockUpdate), (164 bytes).
    Removing misc.o(i.NVIC_PriorityGroupConfig), (20 bytes).
    Removing misc.o(i.NVIC_SetVectorTable), (20 bytes).
    Removing misc.o(i.NVIC_SystemLPConfig), (32 bytes).
    Removing misc.o(i.SysTick_CLKSourceConfig), (40 bytes).
    Removing stm32f10x_adc.o(i.ADC_AnalogWatchdogCmd), (20 bytes).
    Removing stm32f10x_adc.o(i.ADC_AnalogWatchdogSingleChannelConfig), (16 bytes).
    Removing stm32f10x_adc.o(i.ADC_AnalogWatchdogThresholdsConfig), (6 bytes).
    Removing stm32f10x_adc.o(i.ADC_AutoInjectedConvCmd), (22 bytes).
    Removing stm32f10x_adc.o(i.ADC_ClearFlag), (6 bytes).
    Removing stm32f10x_adc.o(i.ADC_ClearITPendingBit), (10 bytes).
    Removing stm32f10x_adc.o(i.ADC_DMACmd), (22 bytes).
    Removing stm32f10x_adc.o(i.ADC_DeInit), (92 bytes).
    Removing stm32f10x_adc.o(i.ADC_DiscModeChannelCountConfig), (24 bytes).
    Removing stm32f10x_adc.o(i.ADC_DiscModeCmd), (22 bytes).
    Removing stm32f10x_adc.o(i.ADC_ExternalTrigConvCmd), (22 bytes).
    Removing stm32f10x_adc.o(i.ADC_ExternalTrigInjectedConvCmd), (22 bytes).
    Removing stm32f10x_adc.o(i.ADC_ExternalTrigInjectedConvConfig), (16 bytes).
    Removing stm32f10x_adc.o(i.ADC_GetDualModeConversionValue), (12 bytes).
    Removing stm32f10x_adc.o(i.ADC_GetITStatus), (36 bytes).
    Removing stm32f10x_adc.o(i.ADC_GetInjectedConversionValue), (28 bytes).
    Removing stm32f10x_adc.o(i.ADC_GetSoftwareStartConvStatus), (20 bytes).
    Removing stm32f10x_adc.o(i.ADC_GetSoftwareStartInjectedConvCmdStatus), (20 bytes).
    Removing stm32f10x_adc.o(i.ADC_ITConfig), (24 bytes).
    Removing stm32f10x_adc.o(i.ADC_InjectedChannelConfig), (130 bytes).
    Removing stm32f10x_adc.o(i.ADC_InjectedDiscModeCmd), (22 bytes).
    Removing stm32f10x_adc.o(i.ADC_InjectedSequencerLengthConfig), (24 bytes).
    Removing stm32f10x_adc.o(i.ADC_SetInjectedOffset), (20 bytes).
    Removing stm32f10x_adc.o(i.ADC_SoftwareStartInjectedConvCmd), (22 bytes).
    Removing stm32f10x_adc.o(i.ADC_StructInit), (18 bytes).
    Removing stm32f10x_adc.o(i.ADC_TempSensorVrefintCmd), (36 bytes).
    Removing stm32f10x_bkp.o(i.BKP_ClearFlag), (20 bytes).
    Removing stm32f10x_bkp.o(i.BKP_ClearITPendingBit), (20 bytes).
    Removing stm32f10x_bkp.o(i.BKP_DeInit), (16 bytes).
    Removing stm32f10x_bkp.o(i.BKP_GetFlagStatus), (12 bytes).
    Removing stm32f10x_bkp.o(i.BKP_GetITStatus), (12 bytes).
    Removing stm32f10x_bkp.o(i.BKP_ITConfig), (12 bytes).
    Removing stm32f10x_bkp.o(i.BKP_RTCOutputConfig), (28 bytes).
    Removing stm32f10x_bkp.o(i.BKP_ReadBackupRegister), (28 bytes).
    Removing stm32f10x_bkp.o(i.BKP_SetRTCCalibrationValue), (28 bytes).
    Removing stm32f10x_bkp.o(i.BKP_TamperPinCmd), (12 bytes).
    Removing stm32f10x_bkp.o(i.BKP_TamperPinLevelConfig), (12 bytes).
    Removing stm32f10x_bkp.o(i.BKP_WriteBackupRegister), (28 bytes).
    Removing stm32f10x_can.o(i.CAN_CancelTransmit), (48 bytes).
    Removing stm32f10x_can.o(i.CAN_ClearFlag), (56 bytes).
    Removing stm32f10x_can.o(i.CAN_ClearITPendingBit), (168 bytes).
    Removing stm32f10x_can.o(i.CAN_DBGFreeze), (22 bytes).
    Removing stm32f10x_can.o(i.CAN_DeInit), (56 bytes).
    Removing stm32f10x_can.o(i.CAN_FIFORelease), (22 bytes).
    Removing stm32f10x_can.o(i.CAN_FilterInit), (264 bytes).
    Removing stm32f10x_can.o(i.CAN_GetFlagStatus), (120 bytes).
    Removing stm32f10x_can.o(i.CAN_GetITStatus), (288 bytes).
    Removing stm32f10x_can.o(i.CAN_GetLSBTransmitErrorCounter), (12 bytes).
    Removing stm32f10x_can.o(i.CAN_GetLastErrorCode), (12 bytes).
    Removing stm32f10x_can.o(i.CAN_GetReceiveErrorCounter), (10 bytes).
    Removing stm32f10x_can.o(i.CAN_ITConfig), (18 bytes).
    Removing stm32f10x_can.o(i.CAN_Init), (276 bytes).
    Removing stm32f10x_can.o(i.CAN_MessagePending), (30 bytes).
    Removing stm32f10x_can.o(i.CAN_OperatingModeRequest), (162 bytes).
    Removing stm32f10x_can.o(i.CAN_Receive), (240 bytes).
    Removing stm32f10x_can.o(i.CAN_SlaveStartBank), (52 bytes).
    Removing stm32f10x_can.o(i.CAN_Sleep), (30 bytes).
    Removing stm32f10x_can.o(i.CAN_StructInit), (32 bytes).
    Removing stm32f10x_can.o(i.CAN_TTComModeCmd), (118 bytes).
    Removing stm32f10x_can.o(i.CAN_Transmit), (294 bytes).
    Removing stm32f10x_can.o(i.CAN_TransmitStatus), (160 bytes).
    Removing stm32f10x_can.o(i.CAN_WakeUp), (48 bytes).
    Removing stm32f10x_can.o(i.CheckITStatus), (18 bytes).
    Removing stm32f10x_cec.o(i.CEC_ClearFlag), (36 bytes).
    Removing stm32f10x_cec.o(i.CEC_ClearITPendingBit), (36 bytes).
    Removing stm32f10x_cec.o(i.CEC_Cmd), (32 bytes).
    Removing stm32f10x_cec.o(i.CEC_DeInit), (22 bytes).
    Removing stm32f10x_cec.o(i.CEC_EndOfMessageCmd), (12 bytes).
    Removing stm32f10x_cec.o(i.CEC_GetFlagStatus), (48 bytes).
    Removing stm32f10x_cec.o(i.CEC_GetITStatus), (40 bytes).
    Removing stm32f10x_cec.o(i.CEC_ITConfig), (12 bytes).
    Removing stm32f10x_cec.o(i.CEC_Init), (32 bytes).
    Removing stm32f10x_cec.o(i.CEC_OwnAddressConfig), (12 bytes).
    Removing stm32f10x_cec.o(i.CEC_ReceiveDataByte), (12 bytes).
    Removing stm32f10x_cec.o(i.CEC_SendDataByte), (12 bytes).
    Removing stm32f10x_cec.o(i.CEC_SetPrescaler), (12 bytes).
    Removing stm32f10x_cec.o(i.CEC_StartOfMessage), (12 bytes).
    Removing stm32f10x_crc.o(i.CRC_CalcBlockCRC), (36 bytes).
    Removing stm32f10x_crc.o(i.CRC_CalcCRC), (16 bytes).
    Removing stm32f10x_crc.o(i.CRC_GetCRC), (12 bytes).
    Removing stm32f10x_crc.o(i.CRC_GetIDRegister), (12 bytes).
    Removing stm32f10x_crc.o(i.CRC_ResetDR), (12 bytes).
    Removing stm32f10x_crc.o(i.CRC_SetIDRegister), (12 bytes).
    Removing stm32f10x_dac.o(i.DAC_Cmd), (40 bytes).
    Removing stm32f10x_dac.o(i.DAC_DMACmd), (44 bytes).
    Removing stm32f10x_dac.o(i.DAC_DeInit), (22 bytes).
    Removing stm32f10x_dac.o(i.DAC_DualSoftwareTriggerCmd), (36 bytes).
    Removing stm32f10x_dac.o(i.DAC_GetDataOutputValue), (36 bytes).
    Removing stm32f10x_dac.o(i.DAC_Init), (52 bytes).
    Removing stm32f10x_dac.o(i.DAC_SetChannel1Data), (32 bytes).
    Removing stm32f10x_dac.o(i.DAC_SetChannel2Data), (32 bytes).
    Removing stm32f10x_dac.o(i.DAC_SetDualChannelData), (36 bytes).
    Removing stm32f10x_dac.o(i.DAC_SoftwareTriggerCmd), (44 bytes).
    Removing stm32f10x_dac.o(i.DAC_StructInit), (12 bytes).
    Removing stm32f10x_dac.o(i.DAC_WaveGenerationCmd), (40 bytes).
    Removing stm32f10x_dbgmcu.o(i.DBGMCU_Config), (32 bytes).
    Removing stm32f10x_dbgmcu.o(i.DBGMCU_GetDEVID), (16 bytes).
    Removing stm32f10x_dbgmcu.o(i.DBGMCU_GetREVID), (12 bytes).
    Removing stm32f10x_dma.o(i.DMA_ClearFlag), (28 bytes).
    Removing stm32f10x_dma.o(i.DMA_ClearITPendingBit), (28 bytes).
    Removing stm32f10x_dma.o(i.DMA_GetFlagStatus), (44 bytes).
    Removing stm32f10x_dma.o(i.DMA_GetITStatus), (44 bytes).
    Removing stm32f10x_dma.o(i.DMA_ITConfig), (18 bytes).
    Removing stm32f10x_dma.o(i.DMA_StructInit), (26 bytes).
    Removing stm32f10x_exti.o(i.EXTI_ClearFlag), (12 bytes).
    Removing stm32f10x_exti.o(i.EXTI_ClearITPendingBit), (12 bytes).
    Removing stm32f10x_exti.o(i.EXTI_DeInit), (36 bytes).
    Removing stm32f10x_exti.o(i.EXTI_GenerateSWInterrupt), (16 bytes).
    Removing stm32f10x_exti.o(i.EXTI_GetFlagStatus), (24 bytes).
    Removing stm32f10x_exti.o(i.EXTI_GetITStatus), (40 bytes).
    Removing stm32f10x_exti.o(i.EXTI_Init), (148 bytes).
    Removing stm32f10x_exti.o(i.EXTI_StructInit), (16 bytes).
    Removing stm32f10x_flash.o(i.FLASH_ClearFlag), (12 bytes).
    Removing stm32f10x_flash.o(i.FLASH_EnableWriteProtection), (196 bytes).
    Removing stm32f10x_flash.o(i.FLASH_EraseAllBank1Pages), (72 bytes).
    Removing stm32f10x_flash.o(i.FLASH_EraseAllPages), (72 bytes).
    Removing stm32f10x_flash.o(i.FLASH_EraseOptionBytes), (168 bytes).
    Removing stm32f10x_flash.o(i.FLASH_ErasePage), (76 bytes).
    Removing stm32f10x_flash.o(i.FLASH_GetBank1Status), (52 bytes).
    Removing stm32f10x_flash.o(i.FLASH_GetFlagStatus), (48 bytes).
    Removing stm32f10x_flash.o(i.FLASH_GetPrefetchBufferStatus), (24 bytes).
    Removing stm32f10x_flash.o(i.FLASH_GetReadOutProtectionStatus), (24 bytes).
    Removing stm32f10x_flash.o(i.FLASH_GetStatus), (52 bytes).
    Removing stm32f10x_flash.o(i.FLASH_GetUserOptionByte), (12 bytes).
    Removing stm32f10x_flash.o(i.FLASH_GetWriteProtectionOptionByte), (12 bytes).
    Removing stm32f10x_flash.o(i.FLASH_HalfCycleAccessCmd), (28 bytes).
    Removing stm32f10x_flash.o(i.FLASH_ITConfig), (32 bytes).
    Removing stm32f10x_flash.o(i.FLASH_Lock), (20 bytes).
    Removing stm32f10x_flash.o(i.FLASH_LockBank1), (20 bytes).
    Removing stm32f10x_flash.o(i.FLASH_PrefetchBufferCmd), (28 bytes).
    Removing stm32f10x_flash.o(i.FLASH_ProgramHalfWord), (64 bytes).
    Removing stm32f10x_flash.o(i.FLASH_ProgramOptionByteData), (84 bytes).
    Removing stm32f10x_flash.o(i.FLASH_ProgramWord), (108 bytes).
    Removing stm32f10x_flash.o(i.FLASH_ReadOutProtection), (172 bytes).
    Removing stm32f10x_flash.o(i.FLASH_SetLatency), (24 bytes).
    Removing stm32f10x_flash.o(i.FLASH_Unlock), (24 bytes).
    Removing stm32f10x_flash.o(i.FLASH_UnlockBank1), (24 bytes).
    Removing stm32f10x_flash.o(i.FLASH_UserOptionByteConfig), (104 bytes).
    Removing stm32f10x_flash.o(i.FLASH_WaitForLastBank1Operation), (38 bytes).
    Removing stm32f10x_flash.o(i.FLASH_WaitForLastOperation), (38 bytes).
    Removing stm32f10x_fsmc.o(i.FSMC_ClearFlag), (64 bytes).
    Removing stm32f10x_fsmc.o(i.FSMC_ClearITPendingBit), (72 bytes).
    Removing stm32f10x_fsmc.o(i.FSMC_GetECC), (28 bytes).
    Removing stm32f10x_fsmc.o(i.FSMC_GetFlagStatus), (56 bytes).
    Removing stm32f10x_fsmc.o(i.FSMC_GetITStatus), (68 bytes).
    Removing stm32f10x_fsmc.o(i.FSMC_ITConfig), (128 bytes).
    Removing stm32f10x_fsmc.o(i.FSMC_NANDCmd), (92 bytes).
    Removing stm32f10x_fsmc.o(i.FSMC_NANDDeInit), (68 bytes).
    Removing stm32f10x_fsmc.o(i.FSMC_NANDECCCmd), (92 bytes).
    Removing stm32f10x_fsmc.o(i.FSMC_NANDInit), (136 bytes).
    Removing stm32f10x_fsmc.o(i.FSMC_NANDStructInit), (54 bytes).
    Removing stm32f10x_fsmc.o(i.FSMC_NORSRAMCmd), (52 bytes).
    Removing stm32f10x_fsmc.o(i.FSMC_NORSRAMDeInit), (54 bytes).
    Removing stm32f10x_fsmc.o(i.FSMC_NORSRAMInit), (230 bytes).
    Removing stm32f10x_fsmc.o(i.FSMC_NORSRAMStructInit), (114 bytes).
    Removing stm32f10x_fsmc.o(i.FSMC_PCCARDCmd), (48 bytes).
    Removing stm32f10x_fsmc.o(i.FSMC_PCCARDDeInit), (40 bytes).
    Removing stm32f10x_fsmc.o(i.FSMC_PCCARDInit), (132 bytes).
    Removing stm32f10x_fsmc.o(i.FSMC_PCCARDStructInit), (60 bytes).
    Removing stm32f10x_gpio.o(i.GPIO_AFIODeInit), (20 bytes).
    Removing stm32f10x_gpio.o(i.GPIO_DeInit), (200 bytes).
    Removing stm32f10x_gpio.o(i.GPIO_ETH_MediaInterfaceConfig), (12 bytes).
    Removing stm32f10x_gpio.o(i.GPIO_EXTILineConfig), (64 bytes).
    Removing stm32f10x_gpio.o(i.GPIO_EventOutputCmd), (12 bytes).
    Removing stm32f10x_gpio.o(i.GPIO_EventOutputConfig), (32 bytes).
    Removing stm32f10x_gpio.o(i.GPIO_PinLockConfig), (18 bytes).
    Removing stm32f10x_gpio.o(i.GPIO_ReadInputData), (8 bytes).
    Removing stm32f10x_gpio.o(i.GPIO_ReadOutputData), (8 bytes).
    Removing stm32f10x_gpio.o(i.GPIO_StructInit), (16 bytes).
    Removing stm32f10x_gpio.o(i.GPIO_Write), (4 bytes).
    Removing stm32f10x_i2c.o(i.I2C_ARPCmd), (24 bytes).
    Removing stm32f10x_i2c.o(i.I2C_AcknowledgeConfig), (24 bytes).
    Removing stm32f10x_i2c.o(i.I2C_CalculatePEC), (24 bytes).
    Removing stm32f10x_i2c.o(i.I2C_CheckEvent), (42 bytes).
    Removing stm32f10x_i2c.o(i.I2C_ClearFlag), (12 bytes).
    Removing stm32f10x_i2c.o(i.I2C_ClearITPendingBit), (12 bytes).
    Removing stm32f10x_i2c.o(i.I2C_Cmd), (24 bytes).
    Removing stm32f10x_i2c.o(i.I2C_DMACmd), (24 bytes).
    Removing stm32f10x_i2c.o(i.I2C_DMALastTransferCmd), (24 bytes).
    Removing stm32f10x_i2c.o(i.I2C_DeInit), (56 bytes).
    Removing stm32f10x_i2c.o(i.I2C_DualAddressCmd), (24 bytes).
    Removing stm32f10x_i2c.o(i.I2C_FastModeDutyCycleConfig), (28 bytes).
    Removing stm32f10x_i2c.o(i.I2C_GeneralCallCmd), (24 bytes).
    Removing stm32f10x_i2c.o(i.I2C_GenerateSTART), (24 bytes).
    Removing stm32f10x_i2c.o(i.I2C_GenerateSTOP), (24 bytes).
    Removing stm32f10x_i2c.o(i.I2C_GetFlagStatus), (58 bytes).
    Removing stm32f10x_i2c.o(i.I2C_GetITStatus), (38 bytes).
    Removing stm32f10x_i2c.o(i.I2C_GetLastEvent), (26 bytes).
    Removing stm32f10x_i2c.o(i.I2C_GetPEC), (8 bytes).
    Removing stm32f10x_i2c.o(i.I2C_ITConfig), (18 bytes).
    Removing stm32f10x_i2c.o(i.I2C_Init), (236 bytes).
    Removing stm32f10x_i2c.o(i.I2C_NACKPositionConfig), (28 bytes).
    Removing stm32f10x_i2c.o(i.I2C_OwnAddress2Config), (22 bytes).
    Removing stm32f10x_i2c.o(i.I2C_PECPositionConfig), (28 bytes).
    Removing stm32f10x_i2c.o(i.I2C_ReadRegister), (22 bytes).
    Removing stm32f10x_i2c.o(i.I2C_ReceiveData), (8 bytes).
    Removing stm32f10x_i2c.o(i.I2C_SMBusAlertConfig), (28 bytes).
    Removing stm32f10x_i2c.o(i.I2C_Send7bitAddress), (18 bytes).
    Removing stm32f10x_i2c.o(i.I2C_SendData), (4 bytes).
    Removing stm32f10x_i2c.o(i.I2C_SoftwareResetCmd), (22 bytes).
    Removing stm32f10x_i2c.o(i.I2C_StretchClockCmd), (24 bytes).
    Removing stm32f10x_i2c.o(i.I2C_StructInit), (30 bytes).
    Removing stm32f10x_i2c.o(i.I2C_TransmitPEC), (24 bytes).
    Removing stm32f10x_iwdg.o(i.IWDG_Enable), (16 bytes).
    Removing stm32f10x_iwdg.o(i.IWDG_GetFlagStatus), (24 bytes).
    Removing stm32f10x_iwdg.o(i.IWDG_ReloadCounter), (16 bytes).
    Removing stm32f10x_iwdg.o(i.IWDG_SetPrescaler), (12 bytes).
    Removing stm32f10x_iwdg.o(i.IWDG_SetReload), (12 bytes).
    Removing stm32f10x_iwdg.o(i.IWDG_WriteAccessCmd), (12 bytes).
    Removing stm32f10x_pwr.o(i.PWR_BackupAccessCmd), (12 bytes).
    Removing stm32f10x_pwr.o(i.PWR_ClearFlag), (20 bytes).
    Removing stm32f10x_pwr.o(i.PWR_DeInit), (22 bytes).
    Removing stm32f10x_pwr.o(i.PWR_EnterSTANDBYMode), (52 bytes).
    Removing stm32f10x_pwr.o(i.PWR_EnterSTOPMode), (64 bytes).
    Removing stm32f10x_pwr.o(i.PWR_GetFlagStatus), (24 bytes).
    Removing stm32f10x_pwr.o(i.PWR_PVDCmd), (12 bytes).
    Removing stm32f10x_pwr.o(i.PWR_PVDLevelConfig), (24 bytes).
    Removing stm32f10x_pwr.o(i.PWR_WakeUpPinCmd), (12 bytes).
    Removing stm32f10x_rcc.o(i.RCC_AdjustHSICalibrationValue), (24 bytes).
    Removing stm32f10x_rcc.o(i.RCC_BackupResetCmd), (12 bytes).
    Removing stm32f10x_rcc.o(i.RCC_ClearFlag), (20 bytes).
    Removing stm32f10x_rcc.o(i.RCC_ClearITPendingBit), (12 bytes).
    Removing stm32f10x_rcc.o(i.RCC_ClockSecuritySystemCmd), (12 bytes).
    Removing stm32f10x_rcc.o(i.RCC_GetITStatus), (24 bytes).
    Removing stm32f10x_rcc.o(i.RCC_HSICmd), (12 bytes).
    Removing stm32f10x_rcc.o(i.RCC_ITConfig), (32 bytes).
    Removing stm32f10x_rcc.o(i.RCC_LSEConfig), (52 bytes).
    Removing stm32f10x_rcc.o(i.RCC_LSICmd), (12 bytes).
    Removing stm32f10x_rcc.o(i.RCC_MCOConfig), (12 bytes).
    Removing stm32f10x_rcc.o(i.RCC_RTCCLKCmd), (12 bytes).
    Removing stm32f10x_rcc.o(i.RCC_RTCCLKConfig), (16 bytes).
    Removing stm32f10x_rcc.o(i.RCC_USBCLKConfig), (12 bytes).
    Removing stm32f10x_rtc.o(i.RTC_ClearFlag), (16 bytes).
    Removing stm32f10x_rtc.o(i.RTC_ClearITPendingBit), (16 bytes).
    Removing stm32f10x_rtc.o(i.RTC_EnterConfigMode), (20 bytes).
    Removing stm32f10x_rtc.o(i.RTC_ExitConfigMode), (20 bytes).
    Removing stm32f10x_rtc.o(i.RTC_GetCounter), (20 bytes).
    Removing stm32f10x_rtc.o(i.RTC_GetDivider), (24 bytes).
    Removing stm32f10x_rtc.o(i.RTC_GetFlagStatus), (24 bytes).
    Removing stm32f10x_rtc.o(i.RTC_GetITStatus), (36 bytes).
    Removing stm32f10x_rtc.o(i.RTC_ITConfig), (32 bytes).
    Removing stm32f10x_rtc.o(i.RTC_SetAlarm), (28 bytes).
    Removing stm32f10x_rtc.o(i.RTC_SetCounter), (28 bytes).
    Removing stm32f10x_rtc.o(i.RTC_SetPrescaler), (32 bytes).
    Removing stm32f10x_rtc.o(i.RTC_WaitForLastTask), (20 bytes).
    Removing stm32f10x_rtc.o(i.RTC_WaitForSynchro), (36 bytes).
    Removing stm32f10x_sdio.o(i.SDIO_CEATAITCmd), (16 bytes).
    Removing stm32f10x_sdio.o(i.SDIO_ClearFlag), (12 bytes).
    Removing stm32f10x_sdio.o(i.SDIO_ClearITPendingBit), (12 bytes).
    Removing stm32f10x_sdio.o(i.SDIO_ClockCmd), (12 bytes).
    Removing stm32f10x_sdio.o(i.SDIO_CmdStructInit), (14 bytes).
    Removing stm32f10x_sdio.o(i.SDIO_CommandCompletionCmd), (12 bytes).
    Removing stm32f10x_sdio.o(i.SDIO_DMACmd), (12 bytes).
    Removing stm32f10x_sdio.o(i.SDIO_DataConfig), (48 bytes).
    Removing stm32f10x_sdio.o(i.SDIO_DataStructInit), (20 bytes).
    Removing stm32f10x_sdio.o(i.SDIO_DeInit), (36 bytes).
    Removing stm32f10x_sdio.o(i.SDIO_GetCommandResponse), (12 bytes).
    Removing stm32f10x_sdio.o(i.SDIO_GetDataCounter), (12 bytes).
    Removing stm32f10x_sdio.o(i.SDIO_GetFIFOCount), (12 bytes).
    Removing stm32f10x_sdio.o(i.SDIO_GetFlagStatus), (24 bytes).
    Removing stm32f10x_sdio.o(i.SDIO_GetITStatus), (24 bytes).
    Removing stm32f10x_sdio.o(i.SDIO_GetPowerState), (16 bytes).
    Removing stm32f10x_sdio.o(i.SDIO_GetResponse), (24 bytes).
    Removing stm32f10x_sdio.o(i.SDIO_ITConfig), (32 bytes).
    Removing stm32f10x_sdio.o(i.SDIO_Init), (48 bytes).
    Removing stm32f10x_sdio.o(i.SDIO_ReadData), (12 bytes).
    Removing stm32f10x_sdio.o(i.SDIO_SendCEATACmd), (12 bytes).
    Removing stm32f10x_sdio.o(i.SDIO_SendCommand), (44 bytes).
    Removing stm32f10x_sdio.o(i.SDIO_SendSDIOSuspendCmd), (12 bytes).
    Removing stm32f10x_sdio.o(i.SDIO_SetPowerState), (28 bytes).
    Removing stm32f10x_sdio.o(i.SDIO_SetSDIOOperation), (12 bytes).
    Removing stm32f10x_sdio.o(i.SDIO_SetSDIOReadWaitMode), (12 bytes).
    Removing stm32f10x_sdio.o(i.SDIO_StartSDIOReadWait), (12 bytes).
    Removing stm32f10x_sdio.o(i.SDIO_StopSDIOReadWait), (12 bytes).
    Removing stm32f10x_sdio.o(i.SDIO_StructInit), (16 bytes).
    Removing stm32f10x_sdio.o(i.SDIO_WriteData), (12 bytes).
    Removing stm32f10x_spi.o(i.I2S_Cmd), (24 bytes).
    Removing stm32f10x_spi.o(i.I2S_Init), (232 bytes).
    Removing stm32f10x_spi.o(i.I2S_StructInit), (20 bytes).
    Removing stm32f10x_spi.o(i.SPI_BiDirectionalLineConfig), (28 bytes).
    Removing stm32f10x_spi.o(i.SPI_CalculateCRC), (24 bytes).
    Removing stm32f10x_spi.o(i.SPI_DataSizeConfig), (18 bytes).
    Removing stm32f10x_spi.o(i.SPI_GetCRC), (16 bytes).
    Removing stm32f10x_spi.o(i.SPI_GetCRCPolynomial), (6 bytes).
    Removing stm32f10x_spi.o(i.SPI_I2S_ClearFlag), (6 bytes).
    Removing stm32f10x_spi.o(i.SPI_I2S_ClearITPendingBit), (20 bytes).
    Removing stm32f10x_spi.o(i.SPI_I2S_DMACmd), (18 bytes).
    Removing stm32f10x_spi.o(i.SPI_I2S_DeInit), (88 bytes).
    Removing stm32f10x_spi.o(i.SPI_I2S_GetITStatus), (52 bytes).
    Removing stm32f10x_spi.o(i.SPI_I2S_ITConfig), (32 bytes).
    Removing stm32f10x_spi.o(i.SPI_NSSInternalSoftwareConfig), (30 bytes).
    Removing stm32f10x_spi.o(i.SPI_SSOutputCmd), (24 bytes).
    Removing stm32f10x_spi.o(i.SPI_StructInit), (24 bytes).
    Removing stm32f10x_spi.o(i.SPI_TransmitCRC), (10 bytes).
    Removing stm32f10x_tim.o(i.TI1_Config), (128 bytes).
    Removing stm32f10x_tim.o(i.TI2_Config), (152 bytes).
    Removing stm32f10x_tim.o(i.TI3_Config), (144 bytes).
    Removing stm32f10x_tim.o(i.TI4_Config), (152 bytes).
    Removing stm32f10x_tim.o(i.TIM_BDTRConfig), (32 bytes).
    Removing stm32f10x_tim.o(i.TIM_BDTRStructInit), (18 bytes).
    Removing stm32f10x_tim.o(i.TIM_CCPreloadControl), (24 bytes).
    Removing stm32f10x_tim.o(i.TIM_CCxCmd), (30 bytes).
    Removing stm32f10x_tim.o(i.TIM_CCxNCmd), (30 bytes).
    Removing stm32f10x_tim.o(i.TIM_ClearFlag), (6 bytes).
    Removing stm32f10x_tim.o(i.TIM_ClearOC1Ref), (18 bytes).
    Removing stm32f10x_tim.o(i.TIM_ClearOC2Ref), (24 bytes).
    Removing stm32f10x_tim.o(i.TIM_ClearOC3Ref), (18 bytes).
    Removing stm32f10x_tim.o(i.TIM_ClearOC4Ref), (24 bytes).
    Removing stm32f10x_tim.o(i.TIM_CounterModeConfig), (18 bytes).
    Removing stm32f10x_tim.o(i.TIM_CtrlPWMOutputs), (30 bytes).
    Removing stm32f10x_tim.o(i.TIM_DMACmd), (18 bytes).
    Removing stm32f10x_tim.o(i.TIM_DMAConfig), (10 bytes).
    Removing stm32f10x_tim.o(i.TIM_DeInit), (488 bytes).
    Removing stm32f10x_tim.o(i.TIM_ETRClockMode1Config), (54 bytes).
    Removing stm32f10x_tim.o(i.TIM_ETRClockMode2Config), (32 bytes).
    Removing stm32f10x_tim.o(i.TIM_ETRConfig), (28 bytes).
    Removing stm32f10x_tim.o(i.TIM_EncoderInterfaceConfig), (66 bytes).
    Removing stm32f10x_tim.o(i.TIM_ForcedOC1Config), (18 bytes).
    Removing stm32f10x_tim.o(i.TIM_ForcedOC2Config), (26 bytes).
    Removing stm32f10x_tim.o(i.TIM_ForcedOC3Config), (18 bytes).
    Removing stm32f10x_tim.o(i.TIM_ForcedOC4Config), (26 bytes).
    Removing stm32f10x_tim.o(i.TIM_GenerateEvent), (4 bytes).
    Removing stm32f10x_tim.o(i.TIM_GetCapture1), (6 bytes).
    Removing stm32f10x_tim.o(i.TIM_GetCapture2), (6 bytes).
    Removing stm32f10x_tim.o(i.TIM_GetCapture3), (6 bytes).
    Removing stm32f10x_tim.o(i.TIM_GetCapture4), (8 bytes).
    Removing stm32f10x_tim.o(i.TIM_GetFlagStatus), (18 bytes).
    Removing stm32f10x_tim.o(i.TIM_GetPrescaler), (6 bytes).
    Removing stm32f10x_tim.o(i.TIM_ICInit), (172 bytes).
    Removing stm32f10x_tim.o(i.TIM_ICStructInit), (18 bytes).
    Removing stm32f10x_tim.o(i.TIM_ITRxExternalClockConfig), (24 bytes).
    Removing stm32f10x_tim.o(i.TIM_InternalClockConfig), (12 bytes).
    Removing stm32f10x_tim.o(i.TIM_OC1FastConfig), (18 bytes).
    Removing stm32f10x_tim.o(i.TIM_OC1Init), (152 bytes).
    Removing stm32f10x_tim.o(i.TIM_OC1NPolarityConfig), (18 bytes).
    Removing stm32f10x_tim.o(i.TIM_OC1PolarityConfig), (18 bytes).
    Removing stm32f10x_tim.o(i.TIM_OC1PreloadConfig), (18 bytes).
    Removing stm32f10x_tim.o(i.TIM_OC2FastConfig), (26 bytes).
    Removing stm32f10x_tim.o(i.TIM_OC2Init), (164 bytes).
    Removing stm32f10x_tim.o(i.TIM_OC2NPolarityConfig), (26 bytes).
    Removing stm32f10x_tim.o(i.TIM_OC2PolarityConfig), (26 bytes).
    Removing stm32f10x_tim.o(i.TIM_OC2PreloadConfig), (26 bytes).
    Removing stm32f10x_tim.o(i.TIM_OC3FastConfig), (18 bytes).
    Removing stm32f10x_tim.o(i.TIM_OC3Init), (160 bytes).
    Removing stm32f10x_tim.o(i.TIM_OC3NPolarityConfig), (26 bytes).
    Removing stm32f10x_tim.o(i.TIM_OC3PolarityConfig), (26 bytes).
    Removing stm32f10x_tim.o(i.TIM_OC3PreloadConfig), (18 bytes).
    Removing stm32f10x_tim.o(i.TIM_OC4FastConfig), (26 bytes).
    Removing stm32f10x_tim.o(i.TIM_OC4Init), (124 bytes).
    Removing stm32f10x_tim.o(i.TIM_OC4PolarityConfig), (26 bytes).
    Removing stm32f10x_tim.o(i.TIM_OC4PreloadConfig), (26 bytes).
    Removing stm32f10x_tim.o(i.TIM_OCStructInit), (20 bytes).
    Removing stm32f10x_tim.o(i.TIM_PWMIConfig), (124 bytes).
    Removing stm32f10x_tim.o(i.TIM_PrescalerConfig), (6 bytes).
    Removing stm32f10x_tim.o(i.TIM_SelectCCDMA), (24 bytes).
    Removing stm32f10x_tim.o(i.TIM_SelectCOM), (24 bytes).
    Removing stm32f10x_tim.o(i.TIM_SelectHallSensor), (24 bytes).
    Removing stm32f10x_tim.o(i.TIM_SelectInputTrigger), (18 bytes).
    Removing stm32f10x_tim.o(i.TIM_SelectMasterSlaveMode), (18 bytes).
    Removing stm32f10x_tim.o(i.TIM_SelectOCxM), (82 bytes).
    Removing stm32f10x_tim.o(i.TIM_SelectOnePulseMode), (18 bytes).
    Removing stm32f10x_tim.o(i.TIM_SelectOutputTrigger), (18 bytes).
    Removing stm32f10x_tim.o(i.TIM_SelectSlaveMode), (18 bytes).
    Removing stm32f10x_tim.o(i.TIM_SetAutoreload), (4 bytes).
    Removing stm32f10x_tim.o(i.TIM_SetClockDivision), (18 bytes).
    Removing stm32f10x_tim.o(i.TIM_SetCompare1), (4 bytes).
    Removing stm32f10x_tim.o(i.TIM_SetCompare2), (4 bytes).
    Removing stm32f10x_tim.o(i.TIM_SetCompare3), (4 bytes).
    Removing stm32f10x_tim.o(i.TIM_SetCompare4), (6 bytes).
    Removing stm32f10x_tim.o(i.TIM_SetIC1Prescaler), (18 bytes).
    Removing stm32f10x_tim.o(i.TIM_SetIC2Prescaler), (26 bytes).
    Removing stm32f10x_tim.o(i.TIM_SetIC3Prescaler), (18 bytes).
    Removing stm32f10x_tim.o(i.TIM_SetIC4Prescaler), (26 bytes).
    Removing stm32f10x_tim.o(i.TIM_TIxExternalClockConfig), (62 bytes).
    Removing stm32f10x_tim.o(i.TIM_TimeBaseStructInit), (18 bytes).
    Removing stm32f10x_tim.o(i.TIM_UpdateDisableConfig), (24 bytes).
    Removing stm32f10x_tim.o(i.TIM_UpdateRequestConfig), (24 bytes).
    Removing stm32f10x_usart.o(i.USART_ClearFlag), (18 bytes).
    Removing stm32f10x_usart.o(i.USART_ClockInit), (34 bytes).
    Removing stm32f10x_usart.o(i.USART_ClockStructInit), (12 bytes).
    Removing stm32f10x_usart.o(i.USART_IrDACmd), (24 bytes).
    Removing stm32f10x_usart.o(i.USART_IrDAConfig), (18 bytes).
    Removing stm32f10x_usart.o(i.USART_LINBreakDetectLengthConfig), (18 bytes).
    Removing stm32f10x_usart.o(i.USART_LINCmd), (24 bytes).
    Removing stm32f10x_usart.o(i.USART_OneBitMethodCmd), (24 bytes).
    Removing stm32f10x_usart.o(i.USART_OverSampling8Cmd), (22 bytes).
    Removing stm32f10x_usart.o(i.USART_ReceiverWakeUpCmd), (24 bytes).
    Removing stm32f10x_usart.o(i.USART_SendBreak), (10 bytes).
    Removing stm32f10x_usart.o(i.USART_SetAddress), (18 bytes).
    Removing stm32f10x_usart.o(i.USART_SetGuardTime), (16 bytes).
    Removing stm32f10x_usart.o(i.USART_SetPrescaler), (16 bytes).
    Removing stm32f10x_usart.o(i.USART_SmartCardCmd), (24 bytes).
    Removing stm32f10x_usart.o(i.USART_SmartCardNACKCmd), (24 bytes).
    Removing stm32f10x_usart.o(i.USART_StructInit), (24 bytes).
    Removing stm32f10x_usart.o(i.USART_WakeUpConfig), (18 bytes).
    Removing stm32f10x_wwdg.o(i.WWDG_ClearFlag), (12 bytes).
    Removing stm32f10x_wwdg.o(i.WWDG_DeInit), (22 bytes).
    Removing stm32f10x_wwdg.o(i.WWDG_Enable), (16 bytes).
    Removing stm32f10x_wwdg.o(i.WWDG_EnableIT), (12 bytes).
    Removing stm32f10x_wwdg.o(i.WWDG_GetFlagStatus), (12 bytes).
    Removing stm32f10x_wwdg.o(i.WWDG_SetCounter), (16 bytes).
    Removing stm32f10x_wwdg.o(i.WWDG_SetPrescaler), (24 bytes).
    Removing stm32f10x_wwdg.o(i.WWDG_SetWindowValue), (40 bytes).
    Removing dfltui.o(.text), (26 bytes).
    Removing dfixul.o(.text), (48 bytes).
    Removing cdrcmple.o(.text), (48 bytes).

446 unused section(s) (total 18740 bytes) removed from the image.

==============================================================================

Image Symbol Table

    Local Symbols

    Symbol Name                              Value     Ov Type        Size  Object(Section)

    ../clib/../cmprslib/zerorunl2.c          0x00000000   Number         0  __dczerorl2.o ABSOLUTE
    ../clib/microlib/ctype/ctype.c           0x00000000   Number         0  ctype_c.o ABSOLUTE
    ../clib/microlib/ctype/ctype.c           0x00000000   Number         0  isspace_c.o ABSOLUTE
    ../clib/microlib/ctype/toupper.c         0x00000000   Number         0  toupper.o ABSOLUTE
    ../clib/microlib/division.c              0x00000000   Number         0  uidiv.o ABSOLUTE
    ../clib/microlib/division.c              0x00000000   Number         0  uldiv.o ABSOLUTE
    ../clib/microlib/errno.c                 0x00000000   Number         0  errno.o ABSOLUTE
    ../clib/microlib/init/entry.s            0x00000000   Number         0  entry11b.o ABSOLUTE
    ../clib/microlib/init/entry.s            0x00000000   Number         0  entry9a.o ABSOLUTE
    ../clib/microlib/init/entry.s            0x00000000   Number         0  entry10b.o ABSOLUTE
    ../clib/microlib/init/entry.s            0x00000000   Number         0  entry12b.o ABSOLUTE
    ../clib/microlib/init/entry.s            0x00000000   Number         0  entry2.o ABSOLUTE
    ../clib/microlib/init/entry.s            0x00000000   Number         0  entry9b.o ABSOLUTE
    ../clib/microlib/init/entry.s            0x00000000   Number         0  entry11a.o ABSOLUTE
    ../clib/microlib/init/entry.s            0x00000000   Number         0  entry5.o ABSOLUTE
    ../clib/microlib/init/entry.s            0x00000000   Number         0  entry12a.o ABSOLUTE
    ../clib/microlib/init/entry.s            0x00000000   Number         0  entry7a.o ABSOLUTE
    ../clib/microlib/init/entry.s            0x00000000   Number         0  entry7b.o ABSOLUTE
    ../clib/microlib/init/entry.s            0x00000000   Number         0  entry.o ABSOLUTE
    ../clib/microlib/init/entry.s            0x00000000   Number         0  entry8a.o ABSOLUTE
    ../clib/microlib/init/entry.s            0x00000000   Number         0  entry8b.o ABSOLUTE
    ../clib/microlib/init/entry.s            0x00000000   Number         0  entry10a.o ABSOLUTE
    ../clib/microlib/longlong.c              0x00000000   Number         0  llshl.o ABSOLUTE
    ../clib/microlib/longlong.c              0x00000000   Number         0  llsshr.o ABSOLUTE
    ../clib/microlib/longlong.c              0x00000000   Number         0  llushr.o ABSOLUTE
    ../clib/microlib/printf/printf.c         0x00000000   Number         0  printfa.o ABSOLUTE
    ../clib/microlib/printf/printf.c         0x00000000   Number         0  printf1.o ABSOLUTE
    ../clib/microlib/printf/printf.c         0x00000000   Number         0  printf4.o ABSOLUTE
    ../clib/microlib/printf/printf.c         0x00000000   Number         0  printf2.o ABSOLUTE
    ../clib/microlib/printf/printf.c         0x00000000   Number         0  printf8.o ABSOLUTE
    ../clib/microlib/printf/printf.c         0x00000000   Number         0  printf0.o ABSOLUTE
    ../clib/microlib/printf/printf.c         0x00000000   Number         0  printf5.o ABSOLUTE
    ../clib/microlib/printf/printf.c         0x00000000   Number         0  printfb.o ABSOLUTE
    ../clib/microlib/printf/printf.c         0x00000000   Number         0  printf7.o ABSOLUTE
    ../clib/microlib/printf/printf.c         0x00000000   Number         0  printf3.o ABSOLUTE
    ../clib/microlib/printf/printf.c         0x00000000   Number         0  printf6.o ABSOLUTE
    ../clib/microlib/printf/stubs.s          0x00000000   Number         0  stubs.o ABSOLUTE
    ../clib/microlib/stdio/streams.c         0x00000000   Number         0  stdout.o ABSOLUTE
    ../clib/microlib/string/memcpy.c         0x00000000   Number         0  memcpyb.o ABSOLUTE
    ../clib/microlib/string/memcpy.c         0x00000000   Number         0  memcpya.o ABSOLUTE
    ../clib/microlib/string/memset.c         0x00000000   Number         0  memseta.o ABSOLUTE
    ../clib/microlib/string/strchr.c         0x00000000   Number         0  strchr.o ABSOLUTE
    ../clib/microlib/string/strcmp.c         0x00000000   Number         0  strcmp.o ABSOLUTE
    ../clib/microlib/string/strcpy.c         0x00000000   Number         0  strcpy.o ABSOLUTE
    ../clib/microlib/string/strlen.c         0x00000000   Number         0  strlen.o ABSOLUTE
    ../clib/microlib/string/strncmp.c        0x00000000   Number         0  strncmp.o ABSOLUTE
    ../clib/microlib/stubs.s                 0x00000000   Number         0  iusefp.o ABSOLUTE
    ../clib/scanf.c                          0x00000000   Number         0  _scanf.o ABSOLUTE
    ../clib/scanf.c                          0x00000000   Number         0  _scanf_int.o ABSOLUTE
    ../clib/scanf.c                          0x00000000   Number         0  __0sscanf.o ABSOLUTE
    ../clib/scanf.c                          0x00000000   Number         0  _scanf_str.o ABSOLUTE
    ../clib/scanf.c                          0x00000000   Number         0  _sgetc.o ABSOLUTE
    ../clib/scanf.c                          0x00000000   Number         0  _chval.o ABSOLUTE
    ../clib/scanf.c                          0x00000000   Number         0  scanf_fp.o ABSOLUTE
    ../clib/scanf.c                          0x00000000   Number         0  scanf_char.o ABSOLUTE
    ../fplib/microlib/d2f.c                  0x00000000   Number         0  d2f.o ABSOLUTE
    ../fplib/microlib/f2d.c                  0x00000000   Number         0  f2d.o ABSOLUTE
    ../fplib/microlib/fpadd.c                0x00000000   Number         0  dadd.o ABSOLUTE
    ../fplib/microlib/fpadd.c                0x00000000   Number         0  fadd.o ABSOLUTE
    ../fplib/microlib/fpcmp4.c               0x00000000   Number         0  dcmp4.o ABSOLUTE
    ../fplib/microlib/fpdiv.c                0x00000000   Number         0  fdiv.o ABSOLUTE
    ../fplib/microlib/fpdiv.c                0x00000000   Number         0  ddiv.o ABSOLUTE
    ../fplib/microlib/fpepilogue.c           0x00000000   Number         0  depilogue.o ABSOLUTE
    ../fplib/microlib/fpepilogue.c           0x00000000   Number         0  fepilogue.o ABSOLUTE
    ../fplib/microlib/fpfix.c                0x00000000   Number         0  dfixul.o ABSOLUTE
    ../fplib/microlib/fpfix.c                0x00000000   Number         0  ffixui.o ABSOLUTE
    ../fplib/microlib/fpfix.c                0x00000000   Number         0  ffixi.o ABSOLUTE
    ../fplib/microlib/fpflt.c                0x00000000   Number         0  dfltul.o ABSOLUTE
    ../fplib/microlib/fpflt.c                0x00000000   Number         0  dfltui.o ABSOLUTE
    ../fplib/microlib/fpflt.c                0x00000000   Number         0  ffltui.o ABSOLUTE
    ../fplib/microlib/fpflt.c                0x00000000   Number         0  fflti.o ABSOLUTE
    ../fplib/microlib/fpmul.c                0x00000000   Number         0  fmul.o ABSOLUTE
    ../fplib/microlib/fpmul.c                0x00000000   Number         0  dmul.o ABSOLUTE
    ../fplib/microlib/fprnd.c                0x00000000   Number         0  frnd.o ABSOLUTE
    ../fplib/microlib/fpscalb.c              0x00000000   Number         0  fscalb.o ABSOLUTE
    ../fplib/microlib/fpsqrt.c               0x00000000   Number         0  fsqrt.o ABSOLUTE
    ../mathlib/atan2f.c                      0x00000000   Number         0  atan2f.o ABSOLUTE
    ../mathlib/atan2f.c                      0x00000000   Number         0  atan2f_x.o ABSOLUTE
    ../mathlib/cosf.c                        0x00000000   Number         0  cosf_x.o ABSOLUTE
    ../mathlib/cosf.c                        0x00000000   Number         0  cosf.o ABSOLUTE
    ../mathlib/fmax.c                        0x00000000   Number         0  fmin.o ABSOLUTE
    ../mathlib/fmax.c                        0x00000000   Number         0  fmax.o ABSOLUTE
    ../mathlib/fpclassifyf.c                 0x00000000   Number         0  fpclassifyf.o ABSOLUTE
    ../mathlib/funder.c                      0x00000000   Number         0  funder.o ABSOLUTE
    ../mathlib/rredf.c                       0x00000000   Number         0  rredf.o ABSOLUTE
    ../mathlib/sinf.c                        0x00000000   Number         0  sinf_x.o ABSOLUTE
    ../mathlib/sinf.c                        0x00000000   Number         0  sinf.o ABSOLUTE
    ../mathlib/sqrtf.c                       0x00000000   Number         0  sqrtf_x.o ABSOLUTE
    ../mathlib/sqrtf.c                       0x00000000   Number         0  sqrtf.o ABSOLUTE
    ..\App\Action.c                          0x00000000   Number         0  action.o ABSOLUTE
    ..\App\App_Ps2.c                         0x00000000   Number         0  app_ps2.o ABSOLUTE
    ..\App\Application.c                     0x00000000   Number         0  application.o ABSOLUTE
    ..\App\Function.c                        0x00000000   Number         0  function.o ABSOLUTE
    ..\App\Global.c                          0x00000000   Number         0  global.o ABSOLUTE
    ..\App\Kinematics.c                      0x00000000   Number         0  kinematics.o ABSOLUTE
    ..\App\Protocol.c                        0x00000000   Number         0  protocol.o ABSOLUTE
    ..\App\ServoPID.c                        0x00000000   Number         0  servopid.o ABSOLUTE
    ..\App\protocolConversion.c              0x00000000   Number         0  protocolconversion.o ABSOLUTE
    ..\BSP\GY33T.c                           0x00000000   Number         0  gy33t.o ABSOLUTE
    ..\BSP\OLED.c                            0x00000000   Number         0  oled.o ABSOLUTE
    ..\BSP\Ultrasonic.c                      0x00000000   Number         0  ultrasonic.o ABSOLUTE
    ..\BSP\joystick.c                        0x00000000   Number         0  joystick.o ABSOLUTE
    ..\Hardware\Beep.c                       0x00000000   Number         0  beep.o ABSOLUTE
    ..\Hardware\Key.c                        0x00000000   Number         0  key.o ABSOLUTE
    ..\Hardware\Led.c                        0x00000000   Number         0  led.o ABSOLUTE
    ..\Hardware\Ps2.c                        0x00000000   Number         0  ps2.o ABSOLUTE
    ..\Hardware\PwmServo.c                   0x00000000   Number         0  pwmservo.o ABSOLUTE
    ..\Hardware\SPI_Flash.c                  0x00000000   Number         0  spi_flash.o ABSOLUTE
    ..\Hardware\Soft_I2C.c                   0x00000000   Number         0  soft_i2c.o ABSOLUTE
    ..\Hardware\Uart.c                       0x00000000   Number         0  uart.o ABSOLUTE
    ..\Library\Start\core_cm3.c              0x00000000   Number         0  core_cm3.o ABSOLUTE
    ..\Library\Start\startup_stm32f10x_md.s  0x00000000   Number         0  startup_stm32f10x_md.o ABSOLUTE
    ..\Library\Start\system_stm32f10x.c      0x00000000   Number         0  system_stm32f10x.o ABSOLUTE
    ..\Library\misc.c                        0x00000000   Number         0  misc.o ABSOLUTE
    ..\Library\stm32f10x_adc.c               0x00000000   Number         0  stm32f10x_adc.o ABSOLUTE
    ..\Library\stm32f10x_bkp.c               0x00000000   Number         0  stm32f10x_bkp.o ABSOLUTE
    ..\Library\stm32f10x_can.c               0x00000000   Number         0  stm32f10x_can.o ABSOLUTE
    ..\Library\stm32f10x_cec.c               0x00000000   Number         0  stm32f10x_cec.o ABSOLUTE
    ..\Library\stm32f10x_crc.c               0x00000000   Number         0  stm32f10x_crc.o ABSOLUTE
    ..\Library\stm32f10x_dac.c               0x00000000   Number         0  stm32f10x_dac.o ABSOLUTE
    ..\Library\stm32f10x_dbgmcu.c            0x00000000   Number         0  stm32f10x_dbgmcu.o ABSOLUTE
    ..\Library\stm32f10x_dma.c               0x00000000   Number         0  stm32f10x_dma.o ABSOLUTE
    ..\Library\stm32f10x_exti.c              0x00000000   Number         0  stm32f10x_exti.o ABSOLUTE
    ..\Library\stm32f10x_flash.c             0x00000000   Number         0  stm32f10x_flash.o ABSOLUTE
    ..\Library\stm32f10x_fsmc.c              0x00000000   Number         0  stm32f10x_fsmc.o ABSOLUTE
    ..\Library\stm32f10x_gpio.c              0x00000000   Number         0  stm32f10x_gpio.o ABSOLUTE
    ..\Library\stm32f10x_i2c.c               0x00000000   Number         0  stm32f10x_i2c.o ABSOLUTE
    ..\Library\stm32f10x_iwdg.c              0x00000000   Number         0  stm32f10x_iwdg.o ABSOLUTE
    ..\Library\stm32f10x_pwr.c               0x00000000   Number         0  stm32f10x_pwr.o ABSOLUTE
    ..\Library\stm32f10x_rcc.c               0x00000000   Number         0  stm32f10x_rcc.o ABSOLUTE
    ..\Library\stm32f10x_rtc.c               0x00000000   Number         0  stm32f10x_rtc.o ABSOLUTE
    ..\Library\stm32f10x_sdio.c              0x00000000   Number         0  stm32f10x_sdio.o ABSOLUTE
    ..\Library\stm32f10x_spi.c               0x00000000   Number         0  stm32f10x_spi.o ABSOLUTE
    ..\Library\stm32f10x_tim.c               0x00000000   Number         0  stm32f10x_tim.o ABSOLUTE
    ..\Library\stm32f10x_usart.c             0x00000000   Number         0  stm32f10x_usart.o ABSOLUTE
    ..\Library\stm32f10x_wwdg.c              0x00000000   Number         0  stm32f10x_wwdg.o ABSOLUTE
    ..\System\SysTick.c                      0x00000000   Number         0  systick.o ABSOLUTE
    ..\System\Timer.c                        0x00000000   Number         0  timer.o ABSOLUTE
    ..\System\rcc.c                          0x00000000   Number         0  rcc.o ABSOLUTE
    ..\System\sys.c                          0x00000000   Number         0  sys.o ABSOLUTE
    ..\User\main.c                           0x00000000   Number         0  main.o ABSOLUTE
    ..\\Library\\Start\\core_cm3.c           0x00000000   Number         0  core_cm3.o ABSOLUTE
    cdrcmple.s                               0x00000000   Number         0  cdrcmple.o ABSOLUTE
    cfcmple.s                                0x00000000   Number         0  cfcmple.o ABSOLUTE
    cfrcmple.s                               0x00000000   Number         0  cfrcmple.o ABSOLUTE
    dc.s                                     0x00000000   Number         0  dc.o ABSOLUTE
    handlers.s                               0x00000000   Number         0  handlers.o ABSOLUTE
    init.s                                   0x00000000   Number         0  init.o ABSOLUTE
    RESET                                    0x08000000   Section      236  startup_stm32f10x_md.o(RESET)
    .ARM.Collect$$$$00000000                 0x080000ec   Section        0  entry.o(.ARM.Collect$$$$00000000)
    .ARM.Collect$$$$00000001                 0x080000ec   Section        4  entry2.o(.ARM.Collect$$$$00000001)
    .ARM.Collect$$$$00000004                 0x080000f0   Section        4  entry5.o(.ARM.Collect$$$$00000004)
    .ARM.Collect$$$$00000008                 0x080000f4   Section        0  entry7b.o(.ARM.Collect$$$$00000008)
    .ARM.Collect$$$$0000000A                 0x080000f4   Section        0  entry8b.o(.ARM.Collect$$$$0000000A)
    .ARM.Collect$$$$0000000B                 0x080000f4   Section        8  entry9a.o(.ARM.Collect$$$$0000000B)
    .ARM.Collect$$$$0000000E                 0x080000fc   Section        4  entry12b.o(.ARM.Collect$$$$0000000E)
    .ARM.Collect$$$$0000000F                 0x08000100   Section        0  entry10a.o(.ARM.Collect$$$$0000000F)
    .ARM.Collect$$$$00000011                 0x08000100   Section        0  entry11a.o(.ARM.Collect$$$$00000011)
    .ARM.Collect$$$$00002712                 0x08000100   Section        4  entry2.o(.ARM.Collect$$$$00002712)
    __lit__00000000                          0x08000100   Data           4  entry2.o(.ARM.Collect$$$$00002712)
    .text                                    0x08000104   Section       36  startup_stm32f10x_md.o(.text)
    .text                                    0x08000128   Section        0  toupper.o(.text)
    .text                                    0x08000134   Section        0  memcpya.o(.text)
    .text                                    0x08000158   Section        0  memseta.o(.text)
    .text                                    0x0800017c   Section        0  strchr.o(.text)
    .text                                    0x08000190   Section        0  strlen.o(.text)
    .text                                    0x0800019e   Section        0  strcmp.o(.text)
    .text                                    0x080001ba   Section        0  strcpy.o(.text)
    .text                                    0x080001cc   Section        0  strncmp.o(.text)
    .text                                    0x080001ec   Section        0  __0sscanf.o(.text)
    .text                                    0x08000224   Section        0  _scanf_int.o(.text)
    .text                                    0x08000370   Section        0  _scanf_str.o(.text)
    .text                                    0x08000450   Section        0  scanf_fp.o(.text)
    _fp_value                                0x08000451   Thumb Code   296  scanf_fp.o(.text)
    .text                                    0x080007b0   Section        0  fadd.o(.text)
    .text                                    0x08000860   Section        0  fmul.o(.text)
    .text                                    0x080008c4   Section        0  fdiv.o(.text)
    .text                                    0x08000940   Section        0  dadd.o(.text)
    .text                                    0x08000a8e   Section        0  dmul.o(.text)
    .text                                    0x08000b72   Section        0  ddiv.o(.text)
    .text                                    0x08000c50   Section        0  fflti.o(.text)
    .text                                    0x08000c62   Section        0  ffltui.o(.text)
    .text                                    0x08000c6c   Section        0  ffixi.o(.text)
    .text                                    0x08000c9e   Section        0  ffixui.o(.text)
    .text                                    0x08000cc6   Section        0  f2d.o(.text)
    .text                                    0x08000cec   Section        0  d2f.o(.text)
    .text                                    0x08000d24   Section       20  cfcmple.o(.text)
    .text                                    0x08000d38   Section       20  cfrcmple.o(.text)
    .text                                    0x08000d4c   Section        0  uidiv.o(.text)
    .text                                    0x08000d78   Section        0  llshl.o(.text)
    .text                                    0x08000d96   Section        0  llsshr.o(.text)
    .text                                    0x08000dba   Section        0  _chval.o(.text)
    .text                                    0x08000dd8   Section        0  scanf_char.o(.text)
    _scanf_char_input                        0x08000dd9   Thumb Code    12  scanf_char.o(.text)
    .text                                    0x08000e00   Section        0  _sgetc.o(.text)
    .text                                    0x08000e40   Section        0  fepilogue.o(.text)
    .text                                    0x08000e40   Section        0  iusefp.o(.text)
    .text                                    0x08000eae   Section        0  fsqrt.o(.text)
    .text                                    0x08000f0c   Section        0  frnd.o(.text)
    .text                                    0x08000f48   Section        0  depilogue.o(.text)
    .text                                    0x08001002   Section        0  dfltul.o(.text)
    .text                                    0x0800101a   Section        0  dcmp4.o(.text)
    .text                                    0x0800107c   Section       36  init.o(.text)
    .text                                    0x080010a0   Section        0  llushr.o(.text)
    .text                                    0x080010c0   Section        0  isspace_c.o(.text)
    .text                                    0x080010cc   Section        0  _scanf.o(.text)
    .text                                    0x080013fc   Section        0  fscalb.o(.text)
    .text                                    0x08001414   Section        0  ctype_c.o(.text)
    .text                                    0x0800143c   Section        0  __dczerorl2.o(.text)
    i.ADC_Cmd                                0x08001492   Section        0  stm32f10x_adc.o(i.ADC_Cmd)
    i.ADC_GetCalibrationStatus               0x080014a8   Section        0  stm32f10x_adc.o(i.ADC_GetCalibrationStatus)
    i.ADC_GetConversionValue                 0x080014bc   Section        0  stm32f10x_adc.o(i.ADC_GetConversionValue)
    i.ADC_GetFlagStatus                      0x080014c4   Section        0  stm32f10x_adc.o(i.ADC_GetFlagStatus)
    i.ADC_GetResetCalibrationStatus          0x080014d6   Section        0  stm32f10x_adc.o(i.ADC_GetResetCalibrationStatus)
    i.ADC_Init                               0x080014ec   Section        0  stm32f10x_adc.o(i.ADC_Init)
    i.ADC_Joystick_Init                      0x0800153c   Section        0  joystick.o(i.ADC_Joystick_Init)
    i.ADC_RegularChannelConfig               0x080015d4   Section        0  stm32f10x_adc.o(i.ADC_RegularChannelConfig)
    i.ADC_ResetCalibration                   0x0800168c   Section        0  stm32f10x_adc.o(i.ADC_ResetCalibration)
    i.ADC_SoftwareStartConvCmd               0x08001696   Section        0  stm32f10x_adc.o(i.ADC_SoftwareStartConvCmd)
    i.ADC_StartCalibration                   0x080016ac   Section        0  stm32f10x_adc.o(i.ADC_StartCalibration)
    i.AppPs2Run                              0x080016b8   Section        0  app_ps2.o(i.AppPs2Run)
    i.Buzzer_Init                            0x08001720   Section        0  beep.o(i.Buzzer_Init)
    i.Buzzer_times                           0x08001754   Section        0  beep.o(i.Buzzer_times)
    i.ColorTask                              0x08001788   Section        0  function.o(i.ColorTask)
    i.DMA_Cmd                                0x08001818   Section        0  stm32f10x_dma.o(i.DMA_Cmd)
    i.DMA_DeInit                             0x08001830   Section        0  stm32f10x_dma.o(i.DMA_DeInit)
    i.DMA_GetCurrDataCounter                 0x0800197c   Section        0  stm32f10x_dma.o(i.DMA_GetCurrDataCounter)
    i.DMA_Init                               0x08001984   Section        0  stm32f10x_dma.o(i.DMA_Init)
    i.DMA_SetCurrDataCounter                 0x080019c0   Section        0  stm32f10x_dma.o(i.DMA_SetCurrDataCounter)
    i.Delay_ms                               0x080019c4   Section        0  systick.o(i.Delay_ms)
    i.Delay_us                               0x080019e4   Section        0  systick.o(i.Delay_us)
    i.DoGroup_Once                           0x08001a0c   Section        0  action.o(i.DoGroup_Once)
    i.GPIO_Init                              0x08001a40   Section        0  stm32f10x_gpio.o(i.GPIO_Init)
    i.GPIO_PinRemapConfig                    0x08001b58   Section        0  stm32f10x_gpio.o(i.GPIO_PinRemapConfig)
    i.GPIO_ReadInputDataBit                  0x08001be8   Section        0  stm32f10x_gpio.o(i.GPIO_ReadInputDataBit)
    i.GPIO_ReadOutputDataBit                 0x08001bfa   Section        0  stm32f10x_gpio.o(i.GPIO_ReadOutputDataBit)
    i.GPIO_ResetBits                         0x08001c0c   Section        0  stm32f10x_gpio.o(i.GPIO_ResetBits)
    i.GPIO_SetBits                           0x08001c10   Section        0  stm32f10x_gpio.o(i.GPIO_SetBits)
    i.GPIO_WriteBit                          0x08001c14   Section        0  stm32f10x_gpio.o(i.GPIO_WriteBit)
    i.GY33T_Read                             0x08001c1e   Section        0  gy33t.o(i.GY33T_Read)
    i.GY33T_Write_Byte                       0x08001c3a   Section        0  gy33t.o(i.GY33T_Write_Byte)
    i.GetMaxTime                             0x08001c4e   Section        0  action.o(i.GetMaxTime)
    i.Get_Adc_Joystick_Value                 0x08001cac   Section        0  joystick.o(i.Get_Adc_Joystick_Value)
    i.Get_Joystick_Percentage_value          0x08001cf8   Section        0  joystick.o(i.Get_Joystick_Percentage_value)
    i.JoystickStatus                         0x08001d44   Section        0  joystick.o(i.JoystickStatus)
    i.JoystickTask                           0x08001d84   Section        0  function.o(i.JoystickTask)
    i.Joystick_Key_Init                      0x08001f44   Section        0  joystick.o(i.Joystick_Key_Init)
    i.Joystick_LED_Init                      0x08001f6c   Section        0  joystick.o(i.Joystick_LED_Init)
    i.Key_Init                               0x08001fa4   Section        0  key.o(i.Key_Init)
    i.LED_Init                               0x08001fc8   Section        0  led.o(i.LED_Init)
    i.Led_Blink                              0x08002000   Section        0  application.o(i.Led_Blink)
    i.LoopMode                               0x08002044   Section        0  application.o(i.LoopMode)
    i.LoopVisionMode                         0x080020b4   Section        0  application.o(i.LoopVisionMode)
    i.Loop_Action                            0x08002258   Section        0  action.o(i.Loop_Action)
    i.Loop_Uart                              0x08002344   Section        0  application.o(i.Loop_Uart)
    i.Millis                                 0x0800239c   Section        0  systick.o(i.Millis)
    i.NVIC_Init                              0x080023a8   Section        0  misc.o(i.NVIC_Init)
    i.OLED_Clear                             0x08002418   Section        0  oled.o(i.OLED_Clear)
    i.OLED_Init                              0x08002458   Section        0  oled.o(i.OLED_Init)
    i.OLED_Print                             0x0800253c   Section        0  oled.o(i.OLED_Print)
    i.OLED_SetPos                            0x08002618   Section        0  oled.o(i.OLED_SetPos)
    i.OLED_ShowChar                          0x08002644   Section        0  oled.o(i.OLED_ShowChar)
    i.OLED_WRByte                            0x080026e4   Section        0  oled.o(i.OLED_WRByte)
    i.Parameter_Init                         0x08002708   Section        0  application.o(i.Parameter_Init)
    i.ParsePsx_Buf                           0x080027dc   Section        0  app_ps2.o(i.ParsePsx_Buf)
    i.Parse_Action                           0x080029fc   Section        0  protocol.o(i.Parse_Action)
    i.Parse_Cmd                              0x08002d28   Section        0  protocol.o(i.Parse_Cmd)
    i.Parse_Group_Cmd                        0x08003288   Section        0  protocol.o(i.Parse_Group_Cmd)
    i.PidInit                                0x08003310   Section        0  servopid.o(i.PidInit)
    i.Ps2HotplugTask                         0x0800334c   Section        0  ps2.o(i.Ps2HotplugTask)
    i.Ps2Probe                               0x0800344c   Section        0  ps2.o(i.Ps2Probe)
    i.Ps2ReConfig                            0x08003484   Section        0  ps2.o(i.Ps2ReConfig)
    i.Ps2TransferByte                        0x080034d0   Section        0  ps2.o(i.Ps2TransferByte)
    Ps2TransferByte                          0x080034d1   Thumb Code    96  ps2.o(i.Ps2TransferByte)
    i.Ps2_Init                               0x08003538   Section        0  ps2.o(i.Ps2_Init)
    i.Ps2_WriteRead                          0x08003630   Section        0  ps2.o(i.Ps2_WriteRead)
    i.PwmServoInit                           0x0800367c   Section        0  pwmservo.o(i.PwmServoInit)
    i.PwmServoStop                           0x0800374c   Section        0  pwmservo.o(i.PwmServoStop)
    i.PwmServo_DoingSet                      0x080037a8   Section        0  pwmservo.o(i.PwmServo_DoingSet)
    i.PwmServo_IncOffset                     0x080038a8   Section        0  pwmservo.o(i.PwmServo_IncOffset)
    i.PwmServo_PinSet                        0x0800395c   Section        0  pwmservo.o(i.PwmServo_PinSet)
    i.PwmServo_SetAngle                      0x080039d4   Section        0  pwmservo.o(i.PwmServo_SetAngle)
    i.RCC_ADCCLKConfig                       0x08003a5c   Section        0  stm32f10x_rcc.o(i.RCC_ADCCLKConfig)
    i.RCC_AHBPeriphClockCmd                  0x08003a74   Section        0  stm32f10x_rcc.o(i.RCC_AHBPeriphClockCmd)
    i.RCC_APB1PeriphClockCmd                 0x08003a94   Section        0  stm32f10x_rcc.o(i.RCC_APB1PeriphClockCmd)
    i.RCC_APB1PeriphResetCmd                 0x08003ab4   Section        0  stm32f10x_rcc.o(i.RCC_APB1PeriphResetCmd)
    i.RCC_APB2PeriphClockCmd                 0x08003ad4   Section        0  stm32f10x_rcc.o(i.RCC_APB2PeriphClockCmd)
    i.RCC_APB2PeriphResetCmd                 0x08003af4   Section        0  stm32f10x_rcc.o(i.RCC_APB2PeriphResetCmd)
    i.RCC_DeInit                             0x08003b14   Section        0  stm32f10x_rcc.o(i.RCC_DeInit)
    i.RCC_GetClocksFreq                      0x08003b60   Section        0  stm32f10x_rcc.o(i.RCC_GetClocksFreq)
    i.RCC_GetFlagStatus                      0x08003c34   Section        0  stm32f10x_rcc.o(i.RCC_GetFlagStatus)
    i.RCC_GetSYSCLKSource                    0x08003c70   Section        0  stm32f10x_rcc.o(i.RCC_GetSYSCLKSource)
    i.RCC_HCLKConfig                         0x08003c80   Section        0  stm32f10x_rcc.o(i.RCC_HCLKConfig)
    i.RCC_HSEConfig                          0x08003c98   Section        0  stm32f10x_rcc.o(i.RCC_HSEConfig)
    i.RCC_PCLK1Config                        0x08003ce4   Section        0  stm32f10x_rcc.o(i.RCC_PCLK1Config)
    i.RCC_PCLK2Config                        0x08003cfc   Section        0  stm32f10x_rcc.o(i.RCC_PCLK2Config)
    i.RCC_PLLCmd                             0x08003d14   Section        0  stm32f10x_rcc.o(i.RCC_PLLCmd)
    i.RCC_PLLConfig                          0x08003d20   Section        0  stm32f10x_rcc.o(i.RCC_PLLConfig)
    i.RCC_SYSCLKConfig                       0x08003d3c   Section        0  stm32f10x_rcc.o(i.RCC_SYSCLKConfig)
    i.RCC_WaitForHSEStartUp                  0x08003d54   Section        0  stm32f10x_rcc.o(i.RCC_WaitForHSEStartUp)
    i.Rcc_Init                               0x08003d8c   Section        0  rcc.o(i.Rcc_Init)
    i.Read                                   0x08003dec   Section        0  soft_i2c.o(i.Read)
    i.Replace_Char                           0x08003e58   Section        0  global.o(i.Replace_Char)
    i.Rewrite_Eeprom                         0x08003e6c   Section        0  protocol.o(i.Rewrite_Eeprom)
    i.SPI_Cmd                                0x08003e8c   Section        0  stm32f10x_spi.o(i.SPI_Cmd)
    i.SPI_I2S_GetFlagStatus                  0x08003ea4   Section        0  stm32f10x_spi.o(i.SPI_I2S_GetFlagStatus)
    i.SPI_I2S_ReceiveData                    0x08003eb6   Section        0  stm32f10x_spi.o(i.SPI_I2S_ReceiveData)
    i.SPI_I2S_SendData                       0x08003ebc   Section        0  stm32f10x_spi.o(i.SPI_I2S_SendData)
    i.SPI_Init                               0x08003ec0   Section        0  stm32f10x_spi.o(i.SPI_Init)
    i.SWJGpio_Init                           0x08003efc   Section        0  sys.o(i.SWJGpio_Init)
    i.Save_Action                            0x08003f14   Section        0  protocol.o(i.Save_Action)
    i.Send                                   0x0800403c   Section        0  soft_i2c.o(i.Send)
    i.Send_Ack                               0x080040b4   Section        0  soft_i2c.o(i.Send_Ack)
    i.ServoState_Init                        0x08004138   Section        0  application.o(i.ServoState_Init)
    i.SetPrintfUart                          0x08004190   Section        0  uart.o(i.SetPrintfUart)
    i.SetSysClock                            0x0800419c   Section        0  system_stm32f10x.o(i.SetSysClock)
    SetSysClock                              0x0800419d   Thumb Code     8  system_stm32f10x.o(i.SetSysClock)
    i.SetSysClockTo72                        0x080041a4   Section        0  system_stm32f10x.o(i.SetSysClockTo72)
    SetSysClockTo72                          0x080041a5   Thumb Code   214  system_stm32f10x.o(i.SetSysClockTo72)
    i.SoftI2C_init                           0x08004284   Section        0  soft_i2c.o(i.SoftI2C_init)
    i.SoftI2C_read                           0x080042e8   Section        0  soft_i2c.o(i.SoftI2C_read)
    i.SoftI2C_write                          0x0800435e   Section        0  soft_i2c.o(i.SoftI2C_write)
    i.Soft_Reset                             0x080043b8   Section        0  sys.o(i.Soft_Reset)
    i.SoundTouchTask                         0x080043e8   Section        0  function.o(i.SoundTouchTask)
    i.Sound_Touch_Key_Init                   0x080044d4   Section        0  key.o(i.Sound_Touch_Key_Init)
    i.SpiFlash_Erase_Sector                  0x08004518   Section        0  spi_flash.o(i.SpiFlash_Erase_Sector)
    i.SpiFlash_Init                          0x08004564   Section        0  spi_flash.o(i.SpiFlash_Init)
    i.SpiFlash_Read                          0x08004618   Section        0  spi_flash.o(i.SpiFlash_Read)
    i.SpiFlash_Read_SR                       0x08004670   Section        0  spi_flash.o(i.SpiFlash_Read_SR)
    i.SpiFlash_Wait_Busy                     0x080046a0   Section        0  spi_flash.o(i.SpiFlash_Wait_Busy)
    i.SpiFlash_Write_Enable                  0x080046b4   Section        0  spi_flash.o(i.SpiFlash_Write_Enable)
    i.SpiFlash_Write_No_Check                0x080046d8   Section        0  spi_flash.o(i.SpiFlash_Write_No_Check)
    i.SpiFlash_Write_Page                    0x08004720   Section        0  spi_flash.o(i.SpiFlash_Write_Page)
    i.SpiFlash_Write_S                       0x0800478c   Section        0  spi_flash.o(i.SpiFlash_Write_S)
    i.Spi_SetSpeed                           0x08004840   Section        0  spi_flash.o(i.Spi_SetSpeed)
    i.Spi_WriteRead                          0x08004864   Section        0  spi_flash.o(i.Spi_WriteRead)
    i.Start                                  0x080048b8   Section        0  soft_i2c.o(i.Start)
    i.Stop                                   0x08004928   Section        0  soft_i2c.o(i.Stop)
    i.Str_Contain_Str                        0x08004984   Section        0  global.o(i.Str_Contain_Str)
    i.SysTickInit                            0x080049d0   Section        0  systick.o(i.SysTickInit)
    i.SysTick_Handler                        0x08004a30   Section        0  systick.o(i.SysTick_Handler)
    i.SystemInit                             0x08004a40   Section        0  system_stm32f10x.o(i.SystemInit)
    i.TIM1_Init                              0x08004aa0   Section        0  timer.o(i.TIM1_Init)
    i.TIM2_IRQHandler                        0x08004b08   Section        0  timer.o(i.TIM2_IRQHandler)
    i.TIM2_Init                              0x08004ba8   Section        0  timer.o(i.TIM2_Init)
    i.TIM_ARRPreloadConfig                   0x08004c0e   Section        0  stm32f10x_tim.o(i.TIM_ARRPreloadConfig)
    i.TIM_ClearITPendingBit                  0x08004c26   Section        0  stm32f10x_tim.o(i.TIM_ClearITPendingBit)
    i.TIM_Cmd                                0x08004c2c   Section        0  stm32f10x_tim.o(i.TIM_Cmd)
    i.TIM_GetCounter                         0x08004c44   Section        0  stm32f10x_tim.o(i.TIM_GetCounter)
    i.TIM_GetITStatus                        0x08004c4a   Section        0  stm32f10x_tim.o(i.TIM_GetITStatus)
    i.TIM_ITConfig                           0x08004c6c   Section        0  stm32f10x_tim.o(i.TIM_ITConfig)
    i.TIM_SetCounter                         0x08004c7e   Section        0  stm32f10x_tim.o(i.TIM_SetCounter)
    i.TIM_TimeBaseInit                       0x08004c84   Section        0  stm32f10x_tim.o(i.TIM_TimeBaseInit)
    i.USART1_IRQHandler                      0x08004d28   Section        0  uart.o(i.USART1_IRQHandler)
    i.USART2_IRQHandler                      0x08004d9c   Section        0  uart.o(i.USART2_IRQHandler)
    i.USART3_IRQHandler                      0x08004dcc   Section        0  uart.o(i.USART3_IRQHandler)
    i.USART_ClearITPendingBit                0x08004e50   Section        0  stm32f10x_usart.o(i.USART_ClearITPendingBit)
    i.USART_Cmd                              0x08004e6e   Section        0  stm32f10x_usart.o(i.USART_Cmd)
    i.USART_DMACmd                           0x08004e86   Section        0  stm32f10x_usart.o(i.USART_DMACmd)
    i.USART_DeInit                           0x08004e98   Section        0  stm32f10x_usart.o(i.USART_DeInit)
    i.USART_GetFlagStatus                    0x08004f34   Section        0  stm32f10x_usart.o(i.USART_GetFlagStatus)
    i.USART_GetITStatus                      0x08004f4e   Section        0  stm32f10x_usart.o(i.USART_GetITStatus)
    i.USART_HalfDuplexCmd                    0x08004fa2   Section        0  stm32f10x_usart.o(i.USART_HalfDuplexCmd)
    i.USART_ITConfig                         0x08004fba   Section        0  stm32f10x_usart.o(i.USART_ITConfig)
    i.USART_Init                             0x08005004   Section        0  stm32f10x_usart.o(i.USART_Init)
    i.USART_ReceiveData                      0x080050dc   Section        0  stm32f10x_usart.o(i.USART_ReceiveData)
    i.USART_SendData                         0x080050e6   Section        0  stm32f10x_usart.o(i.USART_SendData)
    i.USTimer_Init                           0x080050f0   Section        0  ultrasonic.o(i.USTimer_Init)
    i.US_DisRead                             0x08005120   Section        0  ultrasonic.o(i.US_DisRead)
    i.US_Init                                0x080051fc   Section        0  ultrasonic.o(i.US_Init)
    i.Uart1_Init                             0x08005240   Section        0  uart.o(i.Uart1_Init)
    i.Uart2_Init                             0x08005348   Section        0  uart.o(i.Uart2_Init)
    i.Uart3_Init                             0x080053f0   Section        0  uart.o(i.Uart3_Init)
    i.UartAll_Printf                         0x080054f8   Section        0  uart.o(i.UartAll_Printf)
    i.Uart_DataParse                         0x0800552c   Section        0  uart.o(i.Uart_DataParse)
    i.Uart_Init                              0x080055f0   Section        0  application.o(i.Uart_Init)
    i.UsTask                                 0x0800560c   Section        0  function.o(i.UsTask)
    i.Voice_Cmd                              0x08005750   Section        0  protocol.o(i.Voice_Cmd)
    i.Wait_Ack                               0x080059c4   Section        0  soft_i2c.o(i.Wait_Ack)
    i.__0printf$6                            0x08005a5c   Section        0  printf6.o(i.__0printf$6)
    i.__0sprintf$6                           0x08005a7c   Section        0  printf6.o(i.__0sprintf$6)
    i.__ARM_fpclassifyf                      0x08005aa4   Section        0  fpclassifyf.o(i.__ARM_fpclassifyf)
    i.__mathlib_flt_infnan                   0x08005aca   Section        0  funder.o(i.__mathlib_flt_infnan)
    i.__mathlib_flt_infnan2                  0x08005ad0   Section        0  funder.o(i.__mathlib_flt_infnan2)
    i.__mathlib_flt_invalid                  0x08005ad4   Section        0  funder.o(i.__mathlib_flt_invalid)
    i.__mathlib_flt_underflow                0x08005adc   Section        0  funder.o(i.__mathlib_flt_underflow)
    i.__mathlib_rredf2                       0x08005ae8   Section        0  rredf.o(i.__mathlib_rredf2)
    i.__scatterload_copy                     0x08005c50   Section       14  handlers.o(i.__scatterload_copy)
    i.__scatterload_null                     0x08005c5e   Section        2  handlers.o(i.__scatterload_null)
    i.__scatterload_zeroinit                 0x08005c60   Section       14  handlers.o(i.__scatterload_zeroinit)
    i.__set_errno                            0x08005c70   Section        0  errno.o(i.__set_errno)
    i._build_frame                           0x08005c7c   Section        0  protocolconversion.o(i._build_frame)
    _build_frame                             0x08005c7d   Thumb Code    90  protocolconversion.o(i._build_frame)
    i._build_multi_sync                      0x08005cd8   Section        0  protocolconversion.o(i._build_multi_sync)
    _build_multi_sync                        0x08005cd9   Thumb Code   234  protocolconversion.o(i._build_multi_sync)
    i._chk                                   0x08005dd4   Section        0  protocolconversion.o(i._chk)
    _chk                                     0x08005dd5   Thumb Code    28  protocolconversion.o(i._chk)
    i._is_digit                              0x08005df0   Section        0  scanf_fp.o(i._is_digit)
    i._printf_core                           0x08005e00   Section        0  printf6.o(i._printf_core)
    _printf_core                             0x08005e01   Thumb Code   748  printf6.o(i._printf_core)
    i._printf_post_padding                   0x080060f0   Section        0  printf6.o(i._printf_post_padding)
    _printf_post_padding                     0x080060f1   Thumb Code    36  printf6.o(i._printf_post_padding)
    i._printf_pre_padding                    0x08006114   Section        0  printf6.o(i._printf_pre_padding)
    _printf_pre_padding                      0x08006115   Thumb Code    46  printf6.o(i._printf_pre_padding)
    i._sputc                                 0x08006142   Section        0  printf6.o(i._sputc)
    _sputc                                   0x08006143   Thumb Code    10  printf6.o(i._sputc)
    i._u16be                                 0x0800614c   Section        0  protocolconversion.o(i._u16be)
    _u16be                                   0x0800614d   Thumb Code     8  protocolconversion.o(i._u16be)
    i.abs_float                              0x08006154   Section        0  global.o(i.abs_float)
    i.angle_to_PWM                           0x0800616c   Section        0  protocol.o(i.angle_to_PWM)
    i.atan2f                                 0x08006238   Section        0  atan2f.o(i.atan2f)
    i.busServo_asciiToBin                    0x080064dc   Section        0  protocolconversion.o(i.busServo_asciiToBin)
    i.cosf                                   0x08006604   Section        0  cosf.o(i.cosf)
    i.fmax                                   0x08006780   Section        0  fmax.o(i.fmax)
    i.fmin                                   0x080067c2   Section        0  fmin.o(i.fmin)
    i.fputc                                  0x08006804   Section        0  uart.o(i.fputc)
    i.inverseKinematics                      0x0800687c   Section        0  kinematics.o(i.inverseKinematics)
    i.lookup_cmd                             0x08006ef8   Section        0  protocolconversion.o(i.lookup_cmd)
    lookup_cmd                               0x08006ef9   Thumb Code   114  protocolconversion.o(i.lookup_cmd)
    i.loop_Joystick_key                      0x08006f70   Section        0  application.o(i.loop_Joystick_key)
    i.loop_app                               0x0800707c   Section        0  application.o(i.loop_app)
    i.loop_key                               0x080070a4   Section        0  application.o(i.loop_key)
    i.loop_oled                              0x08007164   Section        0  main.o(i.loop_oled)
    i.main                                   0x08007344   Section        0  main.o(i.main)
    i.pack_none                              0x08007354   Section        0  protocolconversion.o(i.pack_none)
    pack_none                                0x08007355   Thumb Code     6  protocolconversion.o(i.pack_none)
    i.pack_pid_write                         0x0800735c   Section        0  protocolconversion.o(i.pack_pid_write)
    pack_pid_write                           0x0800735d   Thumb Code    70  protocolconversion.o(i.pack_pid_write)
    i.pack_position                          0x080073b0   Section        0  protocolconversion.o(i.pack_position)
    pack_position                            0x080073b1   Thumb Code    78  protocolconversion.o(i.pack_position)
    i.setup_app                              0x0800740c   Section        0  application.o(i.setup_app)
    i.setup_run_action                       0x080074b8   Section        0  application.o(i.setup_run_action)
    i.sinf                                   0x080074e8   Section        0  sinf.o(i.sinf)
    i.sqrtf                                  0x08007670   Section        0  sqrtf.o(i.sqrtf)
    i.tx_id                                  0x0800769c   Section        0  protocolconversion.o(i.tx_id)
    tx_id                                    0x0800769d   Thumb Code     8  protocolconversion.o(i.tx_id)
    i.uart1_send_str                         0x080076a4   Section        0  uart.o(i.uart1_send_str)
    i.uart2_send_bytes                       0x080076d0   Section        0  uart.o(i.uart2_send_bytes)
    i.uart2_send_str                         0x08007714   Section        0  uart.o(i.uart2_send_str)
    i.user_parse_ascii_command               0x08007758   Section        0  protocolconversion.o(i.user_parse_ascii_command)
    .constdata                               0x080077a0   Section       24  protocol.o(.constdata)
    .constdata                               0x080077b8   Section      144  kinematics.o(.constdata)
    .constdata                               0x08007848   Section       99  function.o(.constdata)
    color_map                                0x08007848   Data          99  function.o(.constdata)
    .constdata                               0x080078ac   Section      252  protocolconversion.o(.constdata)
    cmd_table                                0x080078ac   Data         252  protocolconversion.o(.constdata)
    .constdata                               0x080079a8   Section     3296  oled.o(.constdata)
    .constdata                               0x08008688   Section       20  ps2.o(.constdata)
    .constdata                               0x0800869c   Section       32  rredf.o(.constdata)
    twooverpi                                0x0800869c   Data          32  rredf.o(.constdata)
    .constdata                               0x080086bc   Section       64  ctype_c.o(.constdata)
    .conststring                             0x080086fc   Section      637  app_ps2.o(.conststring)
    .conststring                             0x0800897c   Section      137  protocolconversion.o(.conststring)
    .data                                    0x20000000   Section     1029  main.o(.data)
    last_tick                                0x20000400   Data           4  main.o(.data)
    last_mode                                0x20000404   Data           1  main.o(.data)
    .data                                    0x20000408   Section       33  application.o(.data)
    systick_ms_bak_led                       0x2000040c   Data           4  application.o(.data)
    tick_bak                                 0x20000410   Data           4  application.o(.data)
    state                                    0x20000414   Data           1  application.o(.data)
    Joystick_tick_bak                        0x20000418   Data           4  application.o(.data)
    state1                                   0x2000041c   Data           1  application.o(.data)
    toggle                                   0x2000041d   Data           1  application.o(.data)
    systick_ms_bak_mode                      0x20000420   Data           4  application.o(.data)
    systick_ms_bak_mode                      0x20000424   Data           4  application.o(.data)
    last_mode                                0x20000428   Data           1  application.o(.data)
    .data                                    0x2000042c   Section       32  action.o(.data)
    systick_ms_bak                           0x20000448   Data           4  action.o(.data)
    .data                                    0x2000044c   Section       76  app_ps2.o(.data)
    systick_ms_bak                           0x2000048c   Data           4  app_ps2.o(.data)
    psx_button_bak                           0x20000490   Data           2  app_ps2.o(.data)
    bak                                      0x20000492   Data           2  app_ps2.o(.data)
    temp                                     0x20000494   Data           2  app_ps2.o(.data)
    temp2                                    0x20000496   Data           2  app_ps2.o(.data)
    .data                                    0x20000498   Section        1  protocol.o(.data)
    .data                                    0x2000049c   Section       40  function.o(.data)
    state                                    0x2000049e   Data           1  function.o(.data)
    last_tick                                0x200004a0   Data           4  function.o(.data)
    action_state                             0x200004a4   Data           1  function.o(.data)
    touch_tick_bak                           0x200004a8   Data           4  function.o(.data)
    key_state                                0x200004ac   Data           1  function.o(.data)
    joystick_tick_bak                        0x200004b0   Data           4  function.o(.data)
    kms_x                                    0x200004b4   Data           4  function.o(.data)
    kms_y                                    0x200004b8   Data           4  function.o(.data)
    last_clamp                               0x200004bc   Data           1  function.o(.data)
    last_tick                                0x200004c0   Data           4  function.o(.data)
    .data                                    0x200004c4   Section        4  pwmservo.o(.data)
    .data                                    0x200004c8   Section       10  uart.o(.data)
    buf_index                                0x200004d0   Data           2  uart.o(.data)
    .data                                    0x200004d2   Section        3  ps2.o(.data)
    ps2_hp_state                             0x200004d2   Data           1  ps2.o(.data)
    ps2_hp_loss                              0x200004d3   Data           1  ps2.o(.data)
    ps2_hp_stable                            0x200004d4   Data           1  ps2.o(.data)
    .data                                    0x200004d6   Section        5  spi_flash.o(.data)
    tmp                                      0x200004da   Data           1  spi_flash.o(.data)
    .data                                    0x200004dc   Section        4  systick.o(.data)
    systick_ms                               0x200004dc   Data           4  systick.o(.data)
    .data                                    0x200004e0   Section        3  timer.o(.data)
    duoji_index2                             0x200004e0   Data           1  timer.o(.data)
    flag                                     0x200004e1   Data           1  timer.o(.data)
    duoji_index1                             0x200004e2   Data           1  timer.o(.data)
    .data                                    0x200004e4   Section       20  system_stm32f10x.o(.data)
    .data                                    0x200004f8   Section       20  stm32f10x_rcc.o(.data)
    APBAHBPrescTable                         0x200004f8   Data          16  stm32f10x_rcc.o(.data)
    ADCPrescTable                            0x20000508   Data           4  stm32f10x_rcc.o(.data)
    .data                                    0x2000050c   Section        4  stdout.o(.data)
    .data                                    0x20000510   Section        4  errno.o(.data)
    _errno                                   0x20000510   Data           4  errno.o(.data)
    .bss                                     0x20000514   Section     1284  protocol.o(.bss)
    .bss                                     0x20000a18   Section      224  pwmservo.o(.bss)
    .bss                                     0x20000af8   Section     3072  uart.o(.bss)
    .bss                                     0x200016f8   Section        9  ps2.o(.bss)
    .bss                                     0x20001702   Section     4114  spi_flash.o(.bss)
    STACK                                    0x20002718   Section     1024  startup_stm32f10x_md.o(STACK)

    Global Symbols

    Symbol Name                              Value     Ov Type        Size  Object(Section)

    BuildAttributes$$THM_ISAv4$P$D$K$B$S$PE$A:L22UL41UL21$X:L11$S22US41US21$IEEE1$IW$USESV6$~STKCKD$USESV7$~SHL$OTIME$ROPI$IEEEX$EBA8$MICROLIB$REQ8$PRES8$EABIv2 0x00000000   Number         0  anon$$obj.o ABSOLUTE
    __ARM_use_no_argv                        0x00000000   Number         0  main.o ABSOLUTE
    _printf_a                                0x00000000   Number         0  stubs.o ABSOLUTE
    _printf_c                                0x00000000   Number         0  stubs.o ABSOLUTE
    _printf_charcount                        0x00000000   Number         0  stubs.o ABSOLUTE
    _printf_d                                0x00000000   Number         0  stubs.o ABSOLUTE
    _printf_e                                0x00000000   Number         0  stubs.o ABSOLUTE
    _printf_f                                0x00000000   Number         0  stubs.o ABSOLUTE
    _printf_flags                            0x00000000   Number         0  stubs.o ABSOLUTE
    _printf_fp_dec                           0x00000000   Number         0  stubs.o ABSOLUTE
    _printf_fp_hex                           0x00000000   Number         0  stubs.o ABSOLUTE
    _printf_g                                0x00000000   Number         0  stubs.o ABSOLUTE
    _printf_i                                0x00000000   Number         0  stubs.o ABSOLUTE
    _printf_int_dec                          0x00000000   Number         0  stubs.o ABSOLUTE
    _printf_l                                0x00000000   Number         0  stubs.o ABSOLUTE
    _printf_lc                               0x00000000   Number         0  stubs.o ABSOLUTE
    _printf_ll                               0x00000000   Number         0  stubs.o ABSOLUTE
    _printf_lld                              0x00000000   Number         0  stubs.o ABSOLUTE
    _printf_lli                              0x00000000   Number         0  stubs.o ABSOLUTE
    _printf_llo                              0x00000000   Number         0  stubs.o ABSOLUTE
    _printf_llu                              0x00000000   Number         0  stubs.o ABSOLUTE
    _printf_llx                              0x00000000   Number         0  stubs.o ABSOLUTE
    _printf_longlong_dec                     0x00000000   Number         0  stubs.o ABSOLUTE
    _printf_longlong_hex                     0x00000000   Number         0  stubs.o ABSOLUTE
    _printf_longlong_oct                     0x00000000   Number         0  stubs.o ABSOLUTE
    _printf_ls                               0x00000000   Number         0  stubs.o ABSOLUTE
    _printf_mbtowc                           0x00000000   Number         0  stubs.o ABSOLUTE
    _printf_n                                0x00000000   Number         0  stubs.o ABSOLUTE
    _printf_o                                0x00000000   Number         0  stubs.o ABSOLUTE
    _printf_p                                0x00000000   Number         0  stubs.o ABSOLUTE
    _printf_percent                          0x00000000   Number         0  stubs.o ABSOLUTE
    _printf_pre_padding                      0x00000000   Number         0  stubs.o ABSOLUTE
    _printf_return_value                     0x00000000   Number         0  stubs.o ABSOLUTE
    _printf_s                                0x00000000   Number         0  stubs.o ABSOLUTE
    _printf_sizespec                         0x00000000   Number         0  stubs.o ABSOLUTE
    _printf_str                              0x00000000   Number         0  stubs.o ABSOLUTE
    _printf_truncate_signed                  0x00000000   Number         0  stubs.o ABSOLUTE
    _printf_truncate_unsigned                0x00000000   Number         0  stubs.o ABSOLUTE
    _printf_u                                0x00000000   Number         0  stubs.o ABSOLUTE
    _printf_wc                               0x00000000   Number         0  stubs.o ABSOLUTE
    _printf_wctomb                           0x00000000   Number         0  stubs.o ABSOLUTE
    _printf_widthprec                        0x00000000   Number         0  stubs.o ABSOLUTE
    _printf_x                                0x00000000   Number         0  stubs.o ABSOLUTE
    __arm_fini_                               - Undefined Weak Reference
    __cpp_initialize__aeabi_                  - Undefined Weak Reference
    __cxa_finalize                            - Undefined Weak Reference
    _clock_init                               - Undefined Weak Reference
    _microlib_exit                            - Undefined Weak Reference
    _scanf_longlong                           - Undefined Weak Reference
    __Vectors_Size                           0x000000ec   Number         0  startup_stm32f10x_md.o ABSOLUTE
    __Vectors                                0x08000000   Data           4  startup_stm32f10x_md.o(RESET)
    __Vectors_End                            0x080000ec   Data           0  startup_stm32f10x_md.o(RESET)
    __main                                   0x080000ed   Thumb Code     0  entry.o(.ARM.Collect$$$$00000000)
    _main_stk                                0x080000ed   Thumb Code     0  entry2.o(.ARM.Collect$$$$00000001)
    _main_scatterload                        0x080000f1   Thumb Code     0  entry5.o(.ARM.Collect$$$$00000004)
    __main_after_scatterload                 0x080000f5   Thumb Code     0  entry5.o(.ARM.Collect$$$$00000004)
    _main_clock                              0x080000f5   Thumb Code     0  entry7b.o(.ARM.Collect$$$$00000008)
    _main_cpp_init                           0x080000f5   Thumb Code     0  entry8b.o(.ARM.Collect$$$$0000000A)
    _main_init                               0x080000f5   Thumb Code     0  entry9a.o(.ARM.Collect$$$$0000000B)
    __rt_lib_shutdown_fini                   0x080000fd   Thumb Code     0  entry12b.o(.ARM.Collect$$$$0000000E)
    __rt_final_cpp                           0x08000101   Thumb Code     0  entry10a.o(.ARM.Collect$$$$0000000F)
    __rt_final_exit                          0x08000101   Thumb Code     0  entry11a.o(.ARM.Collect$$$$00000011)
    Reset_Handler                            0x08000105   Thumb Code     8  startup_stm32f10x_md.o(.text)
    NMI_Handler                              0x0800010d   Thumb Code     2  startup_stm32f10x_md.o(.text)
    HardFault_Handler                        0x0800010f   Thumb Code     2  startup_stm32f10x_md.o(.text)
    MemManage_Handler                        0x08000111   Thumb Code     2  startup_stm32f10x_md.o(.text)
    BusFault_Handler                         0x08000113   Thumb Code     2  startup_stm32f10x_md.o(.text)
    UsageFault_Handler                       0x08000115   Thumb Code     2  startup_stm32f10x_md.o(.text)
    SVC_Handler                              0x08000117   Thumb Code     2  startup_stm32f10x_md.o(.text)
    DebugMon_Handler                         0x08000119   Thumb Code     2  startup_stm32f10x_md.o(.text)
    PendSV_Handler                           0x0800011b   Thumb Code     2  startup_stm32f10x_md.o(.text)
    ADC1_2_IRQHandler                        0x0800011f   Thumb Code     0  startup_stm32f10x_md.o(.text)
    CAN1_RX1_IRQHandler                      0x0800011f   Thumb Code     0  startup_stm32f10x_md.o(.text)
    CAN1_SCE_IRQHandler                      0x0800011f   Thumb Code     0  startup_stm32f10x_md.o(.text)
    DMA1_Channel1_IRQHandler                 0x0800011f   Thumb Code     0  startup_stm32f10x_md.o(.text)
    DMA1_Channel2_IRQHandler                 0x0800011f   Thumb Code     0  startup_stm32f10x_md.o(.text)
    DMA1_Channel3_IRQHandler                 0x0800011f   Thumb Code     0  startup_stm32f10x_md.o(.text)
    DMA1_Channel4_IRQHandler                 0x0800011f   Thumb Code     0  startup_stm32f10x_md.o(.text)
    DMA1_Channel5_IRQHandler                 0x0800011f   Thumb Code     0  startup_stm32f10x_md.o(.text)
    DMA1_Channel6_IRQHandler                 0x0800011f   Thumb Code     0  startup_stm32f10x_md.o(.text)
    DMA1_Channel7_IRQHandler                 0x0800011f   Thumb Code     0  startup_stm32f10x_md.o(.text)
    EXTI0_IRQHandler                         0x0800011f   Thumb Code     0  startup_stm32f10x_md.o(.text)
    EXTI15_10_IRQHandler                     0x0800011f   Thumb Code     0  startup_stm32f10x_md.o(.text)
    EXTI1_IRQHandler                         0x0800011f   Thumb Code     0  startup_stm32f10x_md.o(.text)
    EXTI2_IRQHandler                         0x0800011f   Thumb Code     0  startup_stm32f10x_md.o(.text)
    EXTI3_IRQHandler                         0x0800011f   Thumb Code     0  startup_stm32f10x_md.o(.text)
    EXTI4_IRQHandler                         0x0800011f   Thumb Code     0  startup_stm32f10x_md.o(.text)
    EXTI9_5_IRQHandler                       0x0800011f   Thumb Code     0  startup_stm32f10x_md.o(.text)
    FLASH_IRQHandler                         0x0800011f   Thumb Code     0  startup_stm32f10x_md.o(.text)
    I2C1_ER_IRQHandler                       0x0800011f   Thumb Code     0  startup_stm32f10x_md.o(.text)
    I2C1_EV_IRQHandler                       0x0800011f   Thumb Code     0  startup_stm32f10x_md.o(.text)
    I2C2_ER_IRQHandler                       0x0800011f   Thumb Code     0  startup_stm32f10x_md.o(.text)
    I2C2_EV_IRQHandler                       0x0800011f   Thumb Code     0  startup_stm32f10x_md.o(.text)
    PVD_IRQHandler                           0x0800011f   Thumb Code     0  startup_stm32f10x_md.o(.text)
    RCC_IRQHandler                           0x0800011f   Thumb Code     0  startup_stm32f10x_md.o(.text)
    RTCAlarm_IRQHandler                      0x0800011f   Thumb Code     0  startup_stm32f10x_md.o(.text)
    RTC_IRQHandler                           0x0800011f   Thumb Code     0  startup_stm32f10x_md.o(.text)
    SPI1_IRQHandler                          0x0800011f   Thumb Code     0  startup_stm32f10x_md.o(.text)
    SPI2_IRQHandler                          0x0800011f   Thumb Code     0  startup_stm32f10x_md.o(.text)
    TAMPER_IRQHandler                        0x0800011f   Thumb Code     0  startup_stm32f10x_md.o(.text)
    TIM1_BRK_IRQHandler                      0x0800011f   Thumb Code     0  startup_stm32f10x_md.o(.text)
    TIM1_CC_IRQHandler                       0x0800011f   Thumb Code     0  startup_stm32f10x_md.o(.text)
    TIM1_TRG_COM_IRQHandler                  0x0800011f   Thumb Code     0  startup_stm32f10x_md.o(.text)
    TIM1_UP_IRQHandler                       0x0800011f   Thumb Code     0  startup_stm32f10x_md.o(.text)
    TIM3_IRQHandler                          0x0800011f   Thumb Code     0  startup_stm32f10x_md.o(.text)
    TIM4_IRQHandler                          0x0800011f   Thumb Code     0  startup_stm32f10x_md.o(.text)
    USBWakeUp_IRQHandler                     0x0800011f   Thumb Code     0  startup_stm32f10x_md.o(.text)
    USB_HP_CAN1_TX_IRQHandler                0x0800011f   Thumb Code     0  startup_stm32f10x_md.o(.text)
    USB_LP_CAN1_RX0_IRQHandler               0x0800011f   Thumb Code     0  startup_stm32f10x_md.o(.text)
    WWDG_IRQHandler                          0x0800011f   Thumb Code     0  startup_stm32f10x_md.o(.text)
    toupper                                  0x08000129   Thumb Code    12  toupper.o(.text)
    __aeabi_memcpy                           0x08000135   Thumb Code    36  memcpya.o(.text)
    __aeabi_memcpy4                          0x08000135   Thumb Code     0  memcpya.o(.text)
    __aeabi_memcpy8                          0x08000135   Thumb Code     0  memcpya.o(.text)
    __aeabi_memset                           0x08000159   Thumb Code    14  memseta.o(.text)
    __aeabi_memset4                          0x08000159   Thumb Code     0  memseta.o(.text)
    __aeabi_memset8                          0x08000159   Thumb Code     0  memseta.o(.text)
    __aeabi_memclr                           0x08000167   Thumb Code     4  memseta.o(.text)
    __aeabi_memclr4                          0x08000167   Thumb Code     0  memseta.o(.text)
    __aeabi_memclr8                          0x08000167   Thumb Code     0  memseta.o(.text)
    _memset$wrapper                          0x0800016b   Thumb Code    18  memseta.o(.text)
    strchr                                   0x0800017d   Thumb Code    20  strchr.o(.text)
    strlen                                   0x08000191   Thumb Code    14  strlen.o(.text)
    strcmp                                   0x0800019f   Thumb Code    28  strcmp.o(.text)
    strcpy                                   0x080001bb   Thumb Code    18  strcpy.o(.text)
    strncmp                                  0x080001cd   Thumb Code    30  strncmp.o(.text)
    __0sscanf                                0x080001ed   Thumb Code    48  __0sscanf.o(.text)
    _scanf_int                               0x08000225   Thumb Code   332  _scanf_int.o(.text)
    _scanf_string                            0x08000371   Thumb Code   224  _scanf_str.o(.text)
    _scanf_real                              0x08000579   Thumb Code     0  scanf_fp.o(.text)
    _scanf_really_real                       0x08000579   Thumb Code   556  scanf_fp.o(.text)
    __aeabi_fadd                             0x080007b1   Thumb Code   164  fadd.o(.text)
    __aeabi_fsub                             0x08000855   Thumb Code     6  fadd.o(.text)
    __aeabi_frsub                            0x0800085b   Thumb Code     6  fadd.o(.text)
    __aeabi_fmul                             0x08000861   Thumb Code   100  fmul.o(.text)
    __aeabi_fdiv                             0x080008c5   Thumb Code   124  fdiv.o(.text)
    __aeabi_dadd                             0x08000941   Thumb Code   322  dadd.o(.text)
    __aeabi_dsub                             0x08000a83   Thumb Code     6  dadd.o(.text)
    __aeabi_drsub                            0x08000a89   Thumb Code     6  dadd.o(.text)
    __aeabi_dmul                             0x08000a8f   Thumb Code   228  dmul.o(.text)
    __aeabi_ddiv                             0x08000b73   Thumb Code   222  ddiv.o(.text)
    __aeabi_i2f                              0x08000c51   Thumb Code    18  fflti.o(.text)
    __aeabi_ui2f                             0x08000c63   Thumb Code    10  ffltui.o(.text)
    __aeabi_f2iz                             0x08000c6d   Thumb Code    50  ffixi.o(.text)
    __aeabi_f2uiz                            0x08000c9f   Thumb Code    40  ffixui.o(.text)
    __aeabi_f2d                              0x08000cc7   Thumb Code    38  f2d.o(.text)
    __aeabi_d2f                              0x08000ced   Thumb Code    56  d2f.o(.text)
    __aeabi_cfcmpeq                          0x08000d25   Thumb Code     0  cfcmple.o(.text)
    __aeabi_cfcmple                          0x08000d25   Thumb Code    20  cfcmple.o(.text)
    __aeabi_cfrcmple                         0x08000d39   Thumb Code    20  cfrcmple.o(.text)
    __aeabi_uidiv                            0x08000d4d   Thumb Code     0  uidiv.o(.text)
    __aeabi_uidivmod                         0x08000d4d   Thumb Code    44  uidiv.o(.text)
    __aeabi_llsl                             0x08000d79   Thumb Code    30  llshl.o(.text)
    _ll_shift_l                              0x08000d79   Thumb Code     0  llshl.o(.text)
    __aeabi_lasr                             0x08000d97   Thumb Code    36  llsshr.o(.text)
    _ll_sshift_r                             0x08000d97   Thumb Code     0  llsshr.o(.text)
    _chval                                   0x08000dbb   Thumb Code    28  _chval.o(.text)
    __vfscanf_char                           0x08000de5   Thumb Code    20  scanf_char.o(.text)
    _sgetc                                   0x08000e01   Thumb Code    30  _sgetc.o(.text)
    _sbackspace                              0x08000e1f   Thumb Code    34  _sgetc.o(.text)
    __I$use$fp                               0x08000e41   Thumb Code     0  iusefp.o(.text)
    _float_round                             0x08000e41   Thumb Code    18  fepilogue.o(.text)
    _float_epilogue                          0x08000e53   Thumb Code    92  fepilogue.o(.text)
    _fsqrt                                   0x08000eaf   Thumb Code    94  fsqrt.o(.text)
    _frnd                                    0x08000f0d   Thumb Code    60  frnd.o(.text)
    _double_round                            0x08000f49   Thumb Code    30  depilogue.o(.text)
    _double_epilogue                         0x08000f67   Thumb Code   156  depilogue.o(.text)
    __aeabi_ul2d                             0x08001003   Thumb Code    24  dfltul.o(.text)
    __ARM_dcmp4                              0x0800101b   Thumb Code    96  dcmp4.o(.text)
    _dcmp4                                   0x0800101b   Thumb Code     0  dcmp4.o(.text)
    __scatterload                            0x0800107d   Thumb Code    28  init.o(.text)
    __scatterload_rt2                        0x0800107d   Thumb Code     0  init.o(.text)
    __aeabi_llsr                             0x080010a1   Thumb Code    32  llushr.o(.text)
    _ll_ushift_r                             0x080010a1   Thumb Code     0  llushr.o(.text)
    isspace                                  0x080010c1   Thumb Code    10  isspace_c.o(.text)
    __vfscanf                                0x080010cd   Thumb Code   810  _scanf.o(.text)
    __ARM_scalbnf                            0x080013fd   Thumb Code    24  fscalb.o(.text)
    scalbnf                                  0x080013fd   Thumb Code     0  fscalb.o(.text)
    __ctype_lookup                           0x08001415   Thumb Code    34  ctype_c.o(.text)
    __decompress                             0x0800143d   Thumb Code     0  __dczerorl2.o(.text)
    __decompress1                            0x0800143d   Thumb Code    86  __dczerorl2.o(.text)
    ADC_Cmd                                  0x08001493   Thumb Code    22  stm32f10x_adc.o(i.ADC_Cmd)
    ADC_GetCalibrationStatus                 0x080014a9   Thumb Code    20  stm32f10x_adc.o(i.ADC_GetCalibrationStatus)
    ADC_GetConversionValue                   0x080014bd   Thumb Code     8  stm32f10x_adc.o(i.ADC_GetConversionValue)
    ADC_GetFlagStatus                        0x080014c5   Thumb Code    18  stm32f10x_adc.o(i.ADC_GetFlagStatus)
    ADC_GetResetCalibrationStatus            0x080014d7   Thumb Code    20  stm32f10x_adc.o(i.ADC_GetResetCalibrationStatus)
    ADC_Init                                 0x080014ed   Thumb Code    70  stm32f10x_adc.o(i.ADC_Init)
    ADC_Joystick_Init                        0x0800153d   Thumb Code   142  joystick.o(i.ADC_Joystick_Init)
    ADC_RegularChannelConfig                 0x080015d5   Thumb Code   184  stm32f10x_adc.o(i.ADC_RegularChannelConfig)
    ADC_ResetCalibration                     0x0800168d   Thumb Code    10  stm32f10x_adc.o(i.ADC_ResetCalibration)
    ADC_SoftwareStartConvCmd                 0x08001697   Thumb Code    22  stm32f10x_adc.o(i.ADC_SoftwareStartConvCmd)
    ADC_StartCalibration                     0x080016ad   Thumb Code    10  stm32f10x_adc.o(i.ADC_StartCalibration)
    AppPs2Run                                0x080016b9   Thumb Code    92  app_ps2.o(i.AppPs2Run)
    Buzzer_Init                              0x08001721   Thumb Code    46  beep.o(i.Buzzer_Init)
    Buzzer_times                             0x08001755   Thumb Code    46  beep.o(i.Buzzer_times)
    ColorTask                                0x08001789   Thumb Code   126  function.o(i.ColorTask)
    DMA_Cmd                                  0x08001819   Thumb Code    24  stm32f10x_dma.o(i.DMA_Cmd)
    DMA_DeInit                               0x08001831   Thumb Code   324  stm32f10x_dma.o(i.DMA_DeInit)
    DMA_GetCurrDataCounter                   0x0800197d   Thumb Code     8  stm32f10x_dma.o(i.DMA_GetCurrDataCounter)
    DMA_Init                                 0x08001985   Thumb Code    60  stm32f10x_dma.o(i.DMA_Init)
    DMA_SetCurrDataCounter                   0x080019c1   Thumb Code     4  stm32f10x_dma.o(i.DMA_SetCurrDataCounter)
    Delay_ms                                 0x080019c5   Thumb Code    32  systick.o(i.Delay_ms)
    Delay_us                                 0x080019e5   Thumb Code    40  systick.o(i.Delay_us)
    DoGroup_Once                             0x08001a0d   Thumb Code    44  action.o(i.DoGroup_Once)
    GPIO_Init                                0x08001a41   Thumb Code   278  stm32f10x_gpio.o(i.GPIO_Init)
    GPIO_PinRemapConfig                      0x08001b59   Thumb Code   138  stm32f10x_gpio.o(i.GPIO_PinRemapConfig)
    GPIO_ReadInputDataBit                    0x08001be9   Thumb Code    18  stm32f10x_gpio.o(i.GPIO_ReadInputDataBit)
    GPIO_ReadOutputDataBit                   0x08001bfb   Thumb Code    18  stm32f10x_gpio.o(i.GPIO_ReadOutputDataBit)
    GPIO_ResetBits                           0x08001c0d   Thumb Code     4  stm32f10x_gpio.o(i.GPIO_ResetBits)
    GPIO_SetBits                             0x08001c11   Thumb Code     4  stm32f10x_gpio.o(i.GPIO_SetBits)
    GPIO_WriteBit                            0x08001c15   Thumb Code    10  stm32f10x_gpio.o(i.GPIO_WriteBit)
    GY33T_Read                               0x08001c1f   Thumb Code    28  gy33t.o(i.GY33T_Read)
    GY33T_Write_Byte                         0x08001c3b   Thumb Code    20  gy33t.o(i.GY33T_Write_Byte)
    GetMaxTime                               0x08001c4f   Thumb Code    92  action.o(i.GetMaxTime)
    Get_Adc_Joystick_Value                   0x08001cad   Thumb Code    72  joystick.o(i.Get_Adc_Joystick_Value)
    Get_Joystick_Percentage_value            0x08001cf9   Thumb Code    66  joystick.o(i.Get_Joystick_Percentage_value)
    JoystickStatus                           0x08001d45   Thumb Code    62  joystick.o(i.JoystickStatus)
    JoystickTask                             0x08001d85   Thumb Code   368  function.o(i.JoystickTask)
    Joystick_Key_Init                        0x08001f45   Thumb Code    34  joystick.o(i.Joystick_Key_Init)
    Joystick_LED_Init                        0x08001f6d   Thumb Code    50  joystick.o(i.Joystick_LED_Init)
    Key_Init                                 0x08001fa5   Thumb Code    32  key.o(i.Key_Init)
    LED_Init                                 0x08001fc9   Thumb Code    50  led.o(i.LED_Init)
    Led_Blink                                0x08002001   Thumb Code    60  application.o(i.Led_Blink)
    LoopMode                                 0x08002045   Thumb Code    98  application.o(i.LoopMode)
    LoopVisionMode                           0x080020b5   Thumb Code   240  application.o(i.LoopVisionMode)
    Loop_Action                              0x08002259   Thumb Code   192  action.o(i.Loop_Action)
    Loop_Uart                                0x08002345   Thumb Code    76  application.o(i.Loop_Uart)
    Millis                                   0x0800239d   Thumb Code     6  systick.o(i.Millis)
    NVIC_Init                                0x080023a9   Thumb Code   100  misc.o(i.NVIC_Init)
    OLED_Clear                               0x08002419   Thumb Code    64  oled.o(i.OLED_Clear)
    OLED_Init                                0x08002459   Thumb Code   226  oled.o(i.OLED_Init)
    OLED_Print                               0x0800253d   Thumb Code   214  oled.o(i.OLED_Print)
    OLED_SetPos                              0x08002619   Thumb Code    42  oled.o(i.OLED_SetPos)
    OLED_ShowChar                            0x08002645   Thumb Code   152  oled.o(i.OLED_ShowChar)
    OLED_WRByte                              0x080026e5   Thumb Code    34  oled.o(i.OLED_WRByte)
    Parameter_Init                           0x08002709   Thumb Code   164  application.o(i.Parameter_Init)
    ParsePsx_Buf                             0x080027dd   Thumb Code   496  app_ps2.o(i.ParsePsx_Buf)
    Parse_Action                             0x080029fd   Thumb Code   750  protocol.o(i.Parse_Action)
    Parse_Cmd                                0x08002d29   Thumb Code   892  protocol.o(i.Parse_Cmd)
    Parse_Group_Cmd                          0x08003289   Thumb Code    88  protocol.o(i.Parse_Group_Cmd)
    PidInit                                  0x08003311   Thumb Code    52  servopid.o(i.PidInit)
    Ps2HotplugTask                           0x0800334d   Thumb Code   238  ps2.o(i.Ps2HotplugTask)
    Ps2Probe                                 0x0800344d   Thumb Code    52  ps2.o(i.Ps2Probe)
    Ps2ReConfig                              0x08003485   Thumb Code    68  ps2.o(i.Ps2ReConfig)
    Ps2_Init                                 0x08003539   Thumb Code   236  ps2.o(i.Ps2_Init)
    Ps2_WriteRead                            0x08003631   Thumb Code    66  ps2.o(i.Ps2_WriteRead)
    PwmServoInit                             0x0800367d   Thumb Code   192  pwmservo.o(i.PwmServoInit)
    PwmServoStop                             0x0800374d   Thumb Code    88  pwmservo.o(i.PwmServoStop)
    PwmServo_DoingSet                        0x080037a9   Thumb Code   242  pwmservo.o(i.PwmServo_DoingSet)
    PwmServo_IncOffset                       0x080038a9   Thumb Code   176  pwmservo.o(i.PwmServo_IncOffset)
    PwmServo_PinSet                          0x0800395d   Thumb Code   116  pwmservo.o(i.PwmServo_PinSet)
    PwmServo_SetAngle                        0x080039d5   Thumb Code   122  pwmservo.o(i.PwmServo_SetAngle)
    RCC_ADCCLKConfig                         0x08003a5d   Thumb Code    18  stm32f10x_rcc.o(i.RCC_ADCCLKConfig)
    RCC_AHBPeriphClockCmd                    0x08003a75   Thumb Code    26  stm32f10x_rcc.o(i.RCC_AHBPeriphClockCmd)
    RCC_APB1PeriphClockCmd                   0x08003a95   Thumb Code    26  stm32f10x_rcc.o(i.RCC_APB1PeriphClockCmd)
    RCC_APB1PeriphResetCmd                   0x08003ab5   Thumb Code    26  stm32f10x_rcc.o(i.RCC_APB1PeriphResetCmd)
    RCC_APB2PeriphClockCmd                   0x08003ad5   Thumb Code    26  stm32f10x_rcc.o(i.RCC_APB2PeriphClockCmd)
    RCC_APB2PeriphResetCmd                   0x08003af5   Thumb Code    26  stm32f10x_rcc.o(i.RCC_APB2PeriphResetCmd)
    RCC_DeInit                               0x08003b15   Thumb Code    64  stm32f10x_rcc.o(i.RCC_DeInit)
    RCC_GetClocksFreq                        0x08003b61   Thumb Code   192  stm32f10x_rcc.o(i.RCC_GetClocksFreq)
    RCC_GetFlagStatus                        0x08003c35   Thumb Code    56  stm32f10x_rcc.o(i.RCC_GetFlagStatus)
    RCC_GetSYSCLKSource                      0x08003c71   Thumb Code    10  stm32f10x_rcc.o(i.RCC_GetSYSCLKSource)
    RCC_HCLKConfig                           0x08003c81   Thumb Code    18  stm32f10x_rcc.o(i.RCC_HCLKConfig)
    RCC_HSEConfig                            0x08003c99   Thumb Code    70  stm32f10x_rcc.o(i.RCC_HSEConfig)
    RCC_PCLK1Config                          0x08003ce5   Thumb Code    18  stm32f10x_rcc.o(i.RCC_PCLK1Config)
    RCC_PCLK2Config                          0x08003cfd   Thumb Code    20  stm32f10x_rcc.o(i.RCC_PCLK2Config)
    RCC_PLLCmd                               0x08003d15   Thumb Code     6  stm32f10x_rcc.o(i.RCC_PLLCmd)
    RCC_PLLConfig                            0x08003d21   Thumb Code    24  stm32f10x_rcc.o(i.RCC_PLLConfig)
    RCC_SYSCLKConfig                         0x08003d3d   Thumb Code    18  stm32f10x_rcc.o(i.RCC_SYSCLKConfig)
    RCC_WaitForHSEStartUp                    0x08003d55   Thumb Code    56  stm32f10x_rcc.o(i.RCC_WaitForHSEStartUp)
    Rcc_Init                                 0x08003d8d   Thumb Code    94  rcc.o(i.Rcc_Init)
    Read                                     0x08003ded   Thumb Code   102  soft_i2c.o(i.Read)
    Replace_Char                             0x08003e59   Thumb Code    20  global.o(i.Replace_Char)
    Rewrite_Eeprom                           0x08003e6d   Thumb Code    22  protocol.o(i.Rewrite_Eeprom)
    SPI_Cmd                                  0x08003e8d   Thumb Code    24  stm32f10x_spi.o(i.SPI_Cmd)
    SPI_I2S_GetFlagStatus                    0x08003ea5   Thumb Code    18  stm32f10x_spi.o(i.SPI_I2S_GetFlagStatus)
    SPI_I2S_ReceiveData                      0x08003eb7   Thumb Code     6  stm32f10x_spi.o(i.SPI_I2S_ReceiveData)
    SPI_I2S_SendData                         0x08003ebd   Thumb Code     4  stm32f10x_spi.o(i.SPI_I2S_SendData)
    SPI_Init                                 0x08003ec1   Thumb Code    60  stm32f10x_spi.o(i.SPI_Init)
    SWJGpio_Init                             0x08003efd   Thumb Code    20  sys.o(i.SWJGpio_Init)
    Save_Action                              0x08003f15   Thumb Code   244  protocol.o(i.Save_Action)
    Send                                     0x0800403d   Thumb Code   114  soft_i2c.o(i.Send)
    Send_Ack                                 0x080040b5   Thumb Code   128  soft_i2c.o(i.Send_Ack)
    ServoState_Init                          0x08004139   Thumb Code    80  application.o(i.ServoState_Init)
    SetPrintfUart                            0x08004191   Thumb Code     6  uart.o(i.SetPrintfUart)
    SoftI2C_init                             0x08004285   Thumb Code    96  soft_i2c.o(i.SoftI2C_init)
    SoftI2C_read                             0x080042e9   Thumb Code   118  soft_i2c.o(i.SoftI2C_read)
    SoftI2C_write                            0x0800435f   Thumb Code    88  soft_i2c.o(i.SoftI2C_write)
    Soft_Reset                               0x080043b9   Thumb Code    38  sys.o(i.Soft_Reset)
    SoundTouchTask                           0x080043e9   Thumb Code   196  function.o(i.SoundTouchTask)
    Sound_Touch_Key_Init                     0x080044d5   Thumb Code    64  key.o(i.Sound_Touch_Key_Init)
    SpiFlash_Erase_Sector                    0x08004519   Thumb Code    70  spi_flash.o(i.SpiFlash_Erase_Sector)
    SpiFlash_Init                            0x08004565   Thumb Code   164  spi_flash.o(i.SpiFlash_Init)
    SpiFlash_Read                            0x08004619   Thumb Code    84  spi_flash.o(i.SpiFlash_Read)
    SpiFlash_Read_SR                         0x08004671   Thumb Code    44  spi_flash.o(i.SpiFlash_Read_SR)
    SpiFlash_Wait_Busy                       0x080046a1   Thumb Code    18  spi_flash.o(i.SpiFlash_Wait_Busy)
    SpiFlash_Write_Enable                    0x080046b5   Thumb Code    32  spi_flash.o(i.SpiFlash_Write_Enable)
    SpiFlash_Write_No_Check                  0x080046d9   Thumb Code    70  spi_flash.o(i.SpiFlash_Write_No_Check)
    SpiFlash_Write_Page                      0x08004721   Thumb Code   102  spi_flash.o(i.SpiFlash_Write_Page)
    SpiFlash_Write_S                         0x0800478d   Thumb Code   176  spi_flash.o(i.SpiFlash_Write_S)
    Spi_SetSpeed                             0x08004841   Thumb Code    26  spi_flash.o(i.Spi_SetSpeed)
    Spi_WriteRead                            0x08004865   Thumb Code    78  spi_flash.o(i.Spi_WriteRead)
    Start                                    0x080048b9   Thumb Code   106  soft_i2c.o(i.Start)
    Stop                                     0x08004929   Thumb Code    88  soft_i2c.o(i.Stop)
    Str_Contain_Str                          0x08004985   Thumb Code    74  global.o(i.Str_Contain_Str)
    SysTickInit                              0x080049d1   Thumb Code    84  systick.o(i.SysTickInit)
    SysTick_Handler                          0x08004a31   Thumb Code    12  systick.o(i.SysTick_Handler)
    SystemInit                               0x08004a41   Thumb Code    78  system_stm32f10x.o(i.SystemInit)
    TIM1_Init                                0x08004aa1   Thumb Code    98  timer.o(i.TIM1_Init)
    TIM2_IRQHandler                          0x08004b09   Thumb Code   148  timer.o(i.TIM2_IRQHandler)
    TIM2_Init                                0x08004ba9   Thumb Code   102  timer.o(i.TIM2_Init)
    TIM_ARRPreloadConfig                     0x08004c0f   Thumb Code    24  stm32f10x_tim.o(i.TIM_ARRPreloadConfig)
    TIM_ClearITPendingBit                    0x08004c27   Thumb Code     6  stm32f10x_tim.o(i.TIM_ClearITPendingBit)
    TIM_Cmd                                  0x08004c2d   Thumb Code    24  stm32f10x_tim.o(i.TIM_Cmd)
    TIM_GetCounter                           0x08004c45   Thumb Code     6  stm32f10x_tim.o(i.TIM_GetCounter)
    TIM_GetITStatus                          0x08004c4b   Thumb Code    34  stm32f10x_tim.o(i.TIM_GetITStatus)
    TIM_ITConfig                             0x08004c6d   Thumb Code    18  stm32f10x_tim.o(i.TIM_ITConfig)
    TIM_SetCounter                           0x08004c7f   Thumb Code     4  stm32f10x_tim.o(i.TIM_SetCounter)
    TIM_TimeBaseInit                         0x08004c85   Thumb Code   122  stm32f10x_tim.o(i.TIM_TimeBaseInit)
    USART1_IRQHandler                        0x08004d29   Thumb Code   102  uart.o(i.USART1_IRQHandler)
    USART2_IRQHandler                        0x08004d9d   Thumb Code    44  uart.o(i.USART2_IRQHandler)
    USART3_IRQHandler                        0x08004dcd   Thumb Code   114  uart.o(i.USART3_IRQHandler)
    USART_ClearITPendingBit                  0x08004e51   Thumb Code    30  stm32f10x_usart.o(i.USART_ClearITPendingBit)
    USART_Cmd                                0x08004e6f   Thumb Code    24  stm32f10x_usart.o(i.USART_Cmd)
    USART_DMACmd                             0x08004e87   Thumb Code    18  stm32f10x_usart.o(i.USART_DMACmd)
    USART_DeInit                             0x08004e99   Thumb Code   134  stm32f10x_usart.o(i.USART_DeInit)
    USART_GetFlagStatus                      0x08004f35   Thumb Code    26  stm32f10x_usart.o(i.USART_GetFlagStatus)
    USART_GetITStatus                        0x08004f4f   Thumb Code    84  stm32f10x_usart.o(i.USART_GetITStatus)
    USART_HalfDuplexCmd                      0x08004fa3   Thumb Code    24  stm32f10x_usart.o(i.USART_HalfDuplexCmd)
    USART_ITConfig                           0x08004fbb   Thumb Code    74  stm32f10x_usart.o(i.USART_ITConfig)
    USART_Init                               0x08005005   Thumb Code   210  stm32f10x_usart.o(i.USART_Init)
    USART_ReceiveData                        0x080050dd   Thumb Code    10  stm32f10x_usart.o(i.USART_ReceiveData)
    USART_SendData                           0x080050e7   Thumb Code     8  stm32f10x_usart.o(i.USART_SendData)
    USTimer_Init                             0x080050f1   Thumb Code    44  ultrasonic.o(i.USTimer_Init)
    US_DisRead                               0x08005121   Thumb Code   196  ultrasonic.o(i.US_DisRead)
    US_Init                                  0x080051fd   Thumb Code    62  ultrasonic.o(i.US_Init)
    Uart1_Init                               0x08005241   Thumb Code   248  uart.o(i.Uart1_Init)
    Uart2_Init                               0x08005349   Thumb Code   158  uart.o(i.Uart2_Init)
    Uart3_Init                               0x080053f1   Thumb Code   248  uart.o(i.Uart3_Init)
    UartAll_Printf                           0x080054f9   Thumb Code    48  uart.o(i.UartAll_Printf)
    Uart_DataParse                           0x0800552d   Thumb Code   178  uart.o(i.Uart_DataParse)
    Uart_Init                                0x080055f1   Thumb Code    28  application.o(i.Uart_Init)
    UsTask                                   0x0800560d   Thumb Code   210  function.o(i.UsTask)
    Voice_Cmd                                0x08005751   Thumb Code   366  protocol.o(i.Voice_Cmd)
    Wait_Ack                                 0x080059c5   Thumb Code   148  soft_i2c.o(i.Wait_Ack)
    __0printf$6                              0x08005a5d   Thumb Code    22  printf6.o(i.__0printf$6)
    __1printf$6                              0x08005a5d   Thumb Code     0  printf6.o(i.__0printf$6)
    __2printf                                0x08005a5d   Thumb Code     0  printf6.o(i.__0printf$6)
    __0sprintf$6                             0x08005a7d   Thumb Code    34  printf6.o(i.__0sprintf$6)
    __1sprintf$6                             0x08005a7d   Thumb Code     0  printf6.o(i.__0sprintf$6)
    __2sprintf                               0x08005a7d   Thumb Code     0  printf6.o(i.__0sprintf$6)
    __ARM_fpclassifyf                        0x08005aa5   Thumb Code    38  fpclassifyf.o(i.__ARM_fpclassifyf)
    __mathlib_flt_infnan                     0x08005acb   Thumb Code     6  funder.o(i.__mathlib_flt_infnan)
    __mathlib_flt_infnan2                    0x08005ad1   Thumb Code     4  funder.o(i.__mathlib_flt_infnan2)
    __mathlib_flt_invalid                    0x08005ad5   Thumb Code     8  funder.o(i.__mathlib_flt_invalid)
    __mathlib_flt_underflow                  0x08005add   Thumb Code    10  funder.o(i.__mathlib_flt_underflow)
    __mathlib_rredf2                         0x08005ae9   Thumb Code   344  rredf.o(i.__mathlib_rredf2)
    __scatterload_copy                       0x08005c51   Thumb Code    14  handlers.o(i.__scatterload_copy)
    __scatterload_null                       0x08005c5f   Thumb Code     2  handlers.o(i.__scatterload_null)
    __scatterload_zeroinit                   0x08005c61   Thumb Code    14  handlers.o(i.__scatterload_zeroinit)
    __set_errno                              0x08005c71   Thumb Code     6  errno.o(i.__set_errno)
    _is_digit                                0x08005df1   Thumb Code    14  scanf_fp.o(i._is_digit)
    abs_float                                0x08006155   Thumb Code    24  global.o(i.abs_float)
    angle_to_PWM                             0x0800616d   Thumb Code   184  protocol.o(i.angle_to_PWM)
    atan2f                                   0x08006239   Thumb Code   598  atan2f.o(i.atan2f)
    busServo_asciiToBin                      0x080064dd   Thumb Code   278  protocolconversion.o(i.busServo_asciiToBin)
    cosf                                     0x08006605   Thumb Code   328  cosf.o(i.cosf)
    fmax                                     0x08006781   Thumb Code    66  fmax.o(i.fmax)
    fmin                                     0x080067c3   Thumb Code    66  fmin.o(i.fmin)
    fputc                                    0x08006805   Thumb Code   102  uart.o(i.fputc)
    inverseKinematics                        0x0800687d   Thumb Code  1638  kinematics.o(i.inverseKinematics)
    loop_Joystick_key                        0x08006f71   Thumb Code   214  application.o(i.loop_Joystick_key)
    loop_app                                 0x0800707d   Thumb Code    40  application.o(i.loop_app)
    loop_key                                 0x080070a5   Thumb Code   158  application.o(i.loop_key)
    loop_oled                                0x08007165   Thumb Code   282  main.o(i.loop_oled)
    main                                     0x08007345   Thumb Code    16  main.o(i.main)
    setup_app                                0x0800740d   Thumb Code   148  application.o(i.setup_app)
    setup_run_action                         0x080074b9   Thumb Code    40  application.o(i.setup_run_action)
    sinf                                     0x080074e9   Thumb Code   338  sinf.o(i.sinf)
    sqrtf                                    0x08007671   Thumb Code    44  sqrtf.o(i.sqrtf)
    uart1_send_str                           0x080076a5   Thumb Code    38  uart.o(i.uart1_send_str)
    uart2_send_bytes                         0x080076d1   Thumb Code    64  uart.o(i.uart2_send_bytes)
    uart2_send_str                           0x08007715   Thumb Code    62  uart.o(i.uart2_send_str)
    user_parse_ascii_command                 0x08007759   Thumb Code    48  protocolconversion.o(i.user_parse_ascii_command)
    dh_params                                0x080077b8   Data          96  kinematics.o(.constdata)
    joint_limits                             0x08007818   Data          48  kinematics.o(.constdata)
    F6x8                                     0x080079a8   Data         552  oled.o(.constdata)
    F8X16                                    0x08007bd0   Data        1520  oled.o(.constdata)
    CN16_Msk                                 0x080081c0   Data        1224  oled.o(.constdata)
    cfg                                      0x08008688   Data          20  ps2.o(.constdata)
    __ctype_categories                       0x080086bc   Data          64  ctype_c.o(.constdata)
    Region$$Table$$Base                      0x08008a08   Number         0  anon$$obj.o(Region$$Table)
    Region$$Table$$Limit                     0x08008a28   Number         0  anon$$obj.o(Region$$Table)
    BMP                                      0x20000000   Data        1024  main.o(.data)
    SetMode                                  0x20000408   Data           1  application.o(.data)
    UsMode                                   0x20000409   Data           1  application.o(.data)
    group_do_ok                              0x2000042c   Data           1  action.o(.data)
    do_start_index                           0x20000430   Data           4  action.o(.data)
    do_time                                  0x20000434   Data           4  action.o(.data)
    group_num_start                          0x20000438   Data           4  action.o(.data)
    group_num_end                            0x2000043c   Data           4  action.o(.data)
    group_num_times                          0x20000440   Data           4  action.o(.data)
    action_time                              0x20000444   Data           4  action.o(.data)
    pre_cmd_set_grn                          0x2000044c   Data          64  app_ps2.o(.data)
    AI_mode                                  0x20000498   Data           1  protocol.o(.data)
    Us_ok                                    0x2000049c   Data           1  function.o(.data)
    clampMode                                0x2000049d   Data           1  function.o(.data)
    fix_raio                                 0x200004c4   Data           4  pwmservo.o(.data)
    SW_Uart                                  0x200004c8   Data           1  uart.o(.data)
    Uart_ReceiveCount                        0x200004ca   Data           2  uart.o(.data)
    Uart_GetOK                               0x200004cc   Data           2  uart.o(.data)
    Uart_Mode                                0x200004ce   Data           1  uart.o(.data)
    GPIO_InitStructure                       0x200004d6   Data           4  spi_flash.o(.data)
    SystemCoreClock                          0x200004e4   Data           4  system_stm32f10x.o(.data)
    AHBPrescTable                            0x200004e8   Data          16  system_stm32f10x.o(.data)
    __stdout                                 0x2000050c   Data           4  stdout.o(.data)
    pwm_value                                0x20000514   Data          28  protocol.o(.bss)
    cmd_return                               0x20000530   Data        1024  protocol.o(.bss)
    eeprom_info                              0x20000930   Data         208  protocol.o(.bss)
    solutions                                0x20000a00   Data          24  protocol.o(.bss)
    duoji_doing                              0x20000a18   Data         128  pwmservo.o(.bss)
    pid_doing                                0x20000a98   Data          96  pwmservo.o(.bss)
    Uart_ReceiveBuf                          0x20000af8   Data        1024  uart.o(.bss)
    Uart1_DMA_RX_BUF                         0x20000ef8   Data        1024  uart.o(.bss)
    Uart3_DMA_RX_BUF                         0x200012f8   Data        1024  uart.o(.bss)
    psx_buf                                  0x200016f8   Data           9  ps2.o(.bss)
    SPI_InitStructure                        0x20001702   Data          18  spi_flash.o(.bss)
    W25Q_BUF                                 0x20001714   Data        4096  spi_flash.o(.bss)
    __initial_sp                             0x20002b18   Data           0  startup_stm32f10x_md.o(STACK)



==============================================================================

Memory Map of the image

  Image Entry point : 0x080000ed

  Load Region LR_IROM1 (Base: 0x08000000, Size: 0x00008f3c, Max: 0x00010000, ABSOLUTE, COMPRESSED[0x00008b74])

    Execution Region ER_IROM1 (Exec base: 0x08000000, Load base: 0x08000000, Size: 0x00008a28, Max: 0x00010000, ABSOLUTE)

    Exec Addr    Load Addr    Size         Type   Attr      Idx    E Section Name        Object

    0x08000000   0x08000000   0x000000ec   Data   RO         1459    RESET               startup_stm32f10x_md.o
    0x080000ec   0x080000ec   0x00000000   Code   RO         4501  * .ARM.Collect$$$$00000000  mc_w.l(entry.o)
    0x080000ec   0x080000ec   0x00000004   Code   RO         4842    .ARM.Collect$$$$00000001  mc_w.l(entry2.o)
    0x080000f0   0x080000f0   0x00000004   Code   RO         4845    .ARM.Collect$$$$00000004  mc_w.l(entry5.o)
    0x080000f4   0x080000f4   0x00000000   Code   RO         4847    .ARM.Collect$$$$00000008  mc_w.l(entry7b.o)
    0x080000f4   0x080000f4   0x00000000   Code   RO         4849    .ARM.Collect$$$$0000000A  mc_w.l(entry8b.o)
    0x080000f4   0x080000f4   0x00000008   Code   RO         4850    .ARM.Collect$$$$0000000B  mc_w.l(entry9a.o)
    0x080000fc   0x080000fc   0x00000004   Code   RO         4857    .ARM.Collect$$$$0000000E  mc_w.l(entry12b.o)
    0x08000100   0x08000100   0x00000000   Code   RO         4852    .ARM.Collect$$$$0000000F  mc_w.l(entry10a.o)
    0x08000100   0x08000100   0x00000000   Code   RO         4854    .ARM.Collect$$$$00000011  mc_w.l(entry11a.o)
    0x08000100   0x08000100   0x00000004   Code   RO         4843    .ARM.Collect$$$$00002712  mc_w.l(entry2.o)
    0x08000104   0x08000104   0x00000024   Code   RO         1460    .text               startup_stm32f10x_md.o
    0x08000128   0x08000128   0x0000000c   Code   RO         4504    .text               mc_w.l(toupper.o)
    0x08000134   0x08000134   0x00000024   Code   RO         4506    .text               mc_w.l(memcpya.o)
    0x08000158   0x08000158   0x00000024   Code   RO         4508    .text               mc_w.l(memseta.o)
    0x0800017c   0x0800017c   0x00000014   Code   RO         4510    .text               mc_w.l(strchr.o)
    0x08000190   0x08000190   0x0000000e   Code   RO         4512    .text               mc_w.l(strlen.o)
    0x0800019e   0x0800019e   0x0000001c   Code   RO         4514    .text               mc_w.l(strcmp.o)
    0x080001ba   0x080001ba   0x00000012   Code   RO         4516    .text               mc_w.l(strcpy.o)
    0x080001cc   0x080001cc   0x0000001e   Code   RO         4518    .text               mc_w.l(strncmp.o)
    0x080001ea   0x080001ea   0x00000002   PAD
    0x080001ec   0x080001ec   0x00000038   Code   RO         4783    .text               mc_w.l(__0sscanf.o)
    0x08000224   0x08000224   0x0000014c   Code   RO         4785    .text               mc_w.l(_scanf_int.o)
    0x08000370   0x08000370   0x000000e0   Code   RO         4787    .text               mc_w.l(_scanf_str.o)
    0x08000450   0x08000450   0x00000360   Code   RO         4789    .text               mc_w.l(scanf_fp.o)
    0x080007b0   0x080007b0   0x000000b0   Code   RO         4793    .text               mf_w.l(fadd.o)
    0x08000860   0x08000860   0x00000064   Code   RO         4795    .text               mf_w.l(fmul.o)
    0x080008c4   0x080008c4   0x0000007c   Code   RO         4797    .text               mf_w.l(fdiv.o)
    0x08000940   0x08000940   0x0000014e   Code   RO         4799    .text               mf_w.l(dadd.o)
    0x08000a8e   0x08000a8e   0x000000e4   Code   RO         4801    .text               mf_w.l(dmul.o)
    0x08000b72   0x08000b72   0x000000de   Code   RO         4803    .text               mf_w.l(ddiv.o)
    0x08000c50   0x08000c50   0x00000012   Code   RO         4805    .text               mf_w.l(fflti.o)
    0x08000c62   0x08000c62   0x0000000a   Code   RO         4807    .text               mf_w.l(ffltui.o)
    0x08000c6c   0x08000c6c   0x00000032   Code   RO         4811    .text               mf_w.l(ffixi.o)
    0x08000c9e   0x08000c9e   0x00000028   Code   RO         4813    .text               mf_w.l(ffixui.o)
    0x08000cc6   0x08000cc6   0x00000026   Code   RO         4815    .text               mf_w.l(f2d.o)
    0x08000cec   0x08000cec   0x00000038   Code   RO         4817    .text               mf_w.l(d2f.o)
    0x08000d24   0x08000d24   0x00000014   Code   RO         4819    .text               mf_w.l(cfcmple.o)
    0x08000d38   0x08000d38   0x00000014   Code   RO         4821    .text               mf_w.l(cfrcmple.o)
    0x08000d4c   0x08000d4c   0x0000002c   Code   RO         4859    .text               mc_w.l(uidiv.o)
    0x08000d78   0x08000d78   0x0000001e   Code   RO         4863    .text               mc_w.l(llshl.o)
    0x08000d96   0x08000d96   0x00000024   Code   RO         4865    .text               mc_w.l(llsshr.o)
    0x08000dba   0x08000dba   0x0000001c   Code   RO         4874    .text               mc_w.l(_chval.o)
    0x08000dd6   0x08000dd6   0x00000002   PAD
    0x08000dd8   0x08000dd8   0x00000028   Code   RO         4876    .text               mc_w.l(scanf_char.o)
    0x08000e00   0x08000e00   0x00000040   Code   RO         4878    .text               mc_w.l(_sgetc.o)
    0x08000e40   0x08000e40   0x00000000   Code   RO         4880    .text               mc_w.l(iusefp.o)
    0x08000e40   0x08000e40   0x0000006e   Code   RO         4881    .text               mf_w.l(fepilogue.o)
    0x08000eae   0x08000eae   0x0000005e   Code   RO         4883    .text               mf_w.l(fsqrt.o)
    0x08000f0c   0x08000f0c   0x0000003c   Code   RO         4885    .text               mf_w.l(frnd.o)
    0x08000f48   0x08000f48   0x000000ba   Code   RO         4887    .text               mf_w.l(depilogue.o)
    0x08001002   0x08001002   0x00000018   Code   RO         4889    .text               mf_w.l(dfltul.o)
    0x0800101a   0x0800101a   0x00000060   Code   RO         4895    .text               mf_w.l(dcmp4.o)
    0x0800107a   0x0800107a   0x00000002   PAD
    0x0800107c   0x0800107c   0x00000024   Code   RO         4897    .text               mc_w.l(init.o)
    0x080010a0   0x080010a0   0x00000020   Code   RO         4899    .text               mc_w.l(llushr.o)
    0x080010c0   0x080010c0   0x0000000a   Code   RO         4901    .text               mc_w.l(isspace_c.o)
    0x080010ca   0x080010ca   0x00000002   PAD
    0x080010cc   0x080010cc   0x00000330   Code   RO         4903    .text               mc_w.l(_scanf.o)
    0x080013fc   0x080013fc   0x00000018   Code   RO         4905    .text               mf_w.l(fscalb.o)
    0x08001414   0x08001414   0x00000028   Code   RO         4907    .text               mc_w.l(ctype_c.o)
    0x0800143c   0x0800143c   0x00000056   Code   RO         4918    .text               mc_w.l(__dczerorl2.o)
    0x08001492   0x08001492   0x00000016   Code   RO         1540    i.ADC_Cmd           stm32f10x_adc.o
    0x080014a8   0x080014a8   0x00000014   Code   RO         1548    i.ADC_GetCalibrationStatus  stm32f10x_adc.o
    0x080014bc   0x080014bc   0x00000008   Code   RO         1549    i.ADC_GetConversionValue  stm32f10x_adc.o
    0x080014c4   0x080014c4   0x00000012   Code   RO         1551    i.ADC_GetFlagStatus  stm32f10x_adc.o
    0x080014d6   0x080014d6   0x00000014   Code   RO         1554    i.ADC_GetResetCalibrationStatus  stm32f10x_adc.o
    0x080014ea   0x080014ea   0x00000002   PAD
    0x080014ec   0x080014ec   0x00000050   Code   RO         1558    i.ADC_Init          stm32f10x_adc.o
    0x0800153c   0x0800153c   0x00000098   Code   RO          823    i.ADC_Joystick_Init  joystick.o
    0x080015d4   0x080015d4   0x000000b8   Code   RO         1562    i.ADC_RegularChannelConfig  stm32f10x_adc.o
    0x0800168c   0x0800168c   0x0000000a   Code   RO         1563    i.ADC_ResetCalibration  stm32f10x_adc.o
    0x08001696   0x08001696   0x00000016   Code   RO         1565    i.ADC_SoftwareStartConvCmd  stm32f10x_adc.o
    0x080016ac   0x080016ac   0x0000000a   Code   RO         1567    i.ADC_StartCalibration  stm32f10x_adc.o
    0x080016b6   0x080016b6   0x00000002   PAD
    0x080016b8   0x080016b8   0x00000068   Code   RO          433    i.AppPs2Run         app_ps2.o
    0x08001720   0x08001720   0x00000034   Code   RO         1011    i.Buzzer_Init       beep.o
    0x08001754   0x08001754   0x00000034   Code   RO         1012    i.Buzzer_times      beep.o
    0x08001788   0x08001788   0x00000090   Code   RO          581    i.ColorTask         function.o
    0x08001818   0x08001818   0x00000018   Code   RO         2225    i.DMA_Cmd           stm32f10x_dma.o
    0x08001830   0x08001830   0x0000014c   Code   RO         2226    i.DMA_DeInit        stm32f10x_dma.o
    0x0800197c   0x0800197c   0x00000008   Code   RO         2227    i.DMA_GetCurrDataCounter  stm32f10x_dma.o
    0x08001984   0x08001984   0x0000003c   Code   RO         2231    i.DMA_Init          stm32f10x_dma.o
    0x080019c0   0x080019c0   0x00000004   Code   RO         2232    i.DMA_SetCurrDataCounter  stm32f10x_dma.o
    0x080019c4   0x080019c4   0x00000020   Code   RO         1367    i.Delay_ms          systick.o
    0x080019e4   0x080019e4   0x00000028   Code   RO         1369    i.Delay_us          systick.o
    0x08001a0c   0x08001a0c   0x00000034   Code   RO          387    i.DoGroup_Once      action.o
    0x08001a40   0x08001a40   0x00000116   Code   RO         2649    i.GPIO_Init         stm32f10x_gpio.o
    0x08001b56   0x08001b56   0x00000002   PAD
    0x08001b58   0x08001b58   0x00000090   Code   RO         2651    i.GPIO_PinRemapConfig  stm32f10x_gpio.o
    0x08001be8   0x08001be8   0x00000012   Code   RO         2653    i.GPIO_ReadInputDataBit  stm32f10x_gpio.o
    0x08001bfa   0x08001bfa   0x00000012   Code   RO         2655    i.GPIO_ReadOutputDataBit  stm32f10x_gpio.o
    0x08001c0c   0x08001c0c   0x00000004   Code   RO         2656    i.GPIO_ResetBits    stm32f10x_gpio.o
    0x08001c10   0x08001c10   0x00000004   Code   RO         2657    i.GPIO_SetBits      stm32f10x_gpio.o
    0x08001c14   0x08001c14   0x0000000a   Code   RO         2660    i.GPIO_WriteBit     stm32f10x_gpio.o
    0x08001c1e   0x08001c1e   0x0000001c   Code   RO          805    i.GY33T_Read        gy33t.o
    0x08001c3a   0x08001c3a   0x00000014   Code   RO          806    i.GY33T_Write_Byte  gy33t.o
    0x08001c4e   0x08001c4e   0x0000005c   Code   RO          388    i.GetMaxTime        action.o
    0x08001caa   0x08001caa   0x00000002   PAD
    0x08001cac   0x08001cac   0x0000004c   Code   RO          824    i.Get_Adc_Joystick_Value  joystick.o
    0x08001cf8   0x08001cf8   0x0000004c   Code   RO          825    i.Get_Joystick_Percentage_value  joystick.o
    0x08001d44   0x08001d44   0x0000003e   Code   RO          826    i.JoystickStatus    joystick.o
    0x08001d82   0x08001d82   0x00000002   PAD
    0x08001d84   0x08001d84   0x000001c0   Code   RO          582    i.JoystickTask      function.o
    0x08001f44   0x08001f44   0x00000028   Code   RO          827    i.Joystick_Key_Init  joystick.o
    0x08001f6c   0x08001f6c   0x00000038   Code   RO          828    i.Joystick_LED_Init  joystick.o
    0x08001fa4   0x08001fa4   0x00000024   Code   RO         1029    i.Key_Init          key.o
    0x08001fc8   0x08001fc8   0x00000038   Code   RO         1060    i.LED_Init          led.o
    0x08002000   0x08002000   0x00000044   Code   RO          287    i.Led_Blink         application.o
    0x08002044   0x08002044   0x00000070   Code   RO          288    i.LoopMode          application.o
    0x080020b4   0x080020b4   0x000001a4   Code   RO          289    i.LoopVisionMode    application.o
    0x08002258   0x08002258   0x000000ec   Code   RO          389    i.Loop_Action       action.o
    0x08002344   0x08002344   0x00000058   Code   RO          290    i.Loop_Uart         application.o
    0x0800239c   0x0800239c   0x0000000c   Code   RO         1370    i.Millis            systick.o
    0x080023a8   0x080023a8   0x00000070   Code   RO         1498    i.NVIC_Init         misc.o
    0x08002418   0x08002418   0x00000040   Code   RO          691    i.OLED_Clear        oled.o
    0x08002458   0x08002458   0x000000e2   Code   RO          696    i.OLED_Init         oled.o
    0x0800253a   0x0800253a   0x00000002   PAD
    0x0800253c   0x0800253c   0x000000dc   Code   RO          698    i.OLED_Print        oled.o
    0x08002618   0x08002618   0x0000002a   Code   RO          699    i.OLED_SetPos       oled.o
    0x08002642   0x08002642   0x00000002   PAD
    0x08002644   0x08002644   0x000000a0   Code   RO          700    i.OLED_ShowChar     oled.o
    0x080026e4   0x080026e4   0x00000022   Code   RO          703    i.OLED_WRByte       oled.o
    0x08002706   0x08002706   0x00000002   PAD
    0x08002708   0x08002708   0x000000d4   Code   RO          291    i.Parameter_Init    application.o
    0x080027dc   0x080027dc   0x00000220   Code   RO          434    i.ParsePsx_Buf      app_ps2.o
    0x080029fc   0x080029fc   0x0000032c   Code   RO          468    i.Parse_Action      protocol.o
    0x08002d28   0x08002d28   0x00000560   Code   RO          469    i.Parse_Cmd         protocol.o
    0x08003288   0x08003288   0x00000088   Code   RO          470    i.Parse_Group_Cmd   protocol.o
    0x08003310   0x08003310   0x0000003c   Code   RO          532    i.PidInit           servopid.o
    0x0800334c   0x0800334c   0x00000100   Code   RO         1072    i.Ps2HotplugTask    ps2.o
    0x0800344c   0x0800344c   0x00000038   Code   RO         1073    i.Ps2Probe          ps2.o
    0x08003484   0x08003484   0x0000004c   Code   RO         1074    i.Ps2ReConfig       ps2.o
    0x080034d0   0x080034d0   0x00000068   Code   RO         1075    i.Ps2TransferByte   ps2.o
    0x08003538   0x08003538   0x000000f8   Code   RO         1076    i.Ps2_Init          ps2.o
    0x08003630   0x08003630   0x0000004c   Code   RO         1077    i.Ps2_WriteRead     ps2.o
    0x0800367c   0x0800367c   0x000000d0   Code   RO          865    i.PwmServoInit      pwmservo.o
    0x0800374c   0x0800374c   0x0000005c   Code   RO          866    i.PwmServoStop      pwmservo.o
    0x080037a8   0x080037a8   0x00000100   Code   RO          868    i.PwmServo_DoingSet  pwmservo.o
    0x080038a8   0x080038a8   0x000000b4   Code   RO          869    i.PwmServo_IncOffset  pwmservo.o
    0x0800395c   0x0800395c   0x00000078   Code   RO          870    i.PwmServo_PinSet   pwmservo.o
    0x080039d4   0x080039d4   0x00000088   Code   RO          871    i.PwmServo_SetAngle  pwmservo.o
    0x08003a5c   0x08003a5c   0x00000018   Code   RO         3063    i.RCC_ADCCLKConfig  stm32f10x_rcc.o
    0x08003a74   0x08003a74   0x00000020   Code   RO         3064    i.RCC_AHBPeriphClockCmd  stm32f10x_rcc.o
    0x08003a94   0x08003a94   0x00000020   Code   RO         3065    i.RCC_APB1PeriphClockCmd  stm32f10x_rcc.o
    0x08003ab4   0x08003ab4   0x00000020   Code   RO         3066    i.RCC_APB1PeriphResetCmd  stm32f10x_rcc.o
    0x08003ad4   0x08003ad4   0x00000020   Code   RO         3067    i.RCC_APB2PeriphClockCmd  stm32f10x_rcc.o
    0x08003af4   0x08003af4   0x00000020   Code   RO         3068    i.RCC_APB2PeriphResetCmd  stm32f10x_rcc.o
    0x08003b14   0x08003b14   0x0000004c   Code   RO         3074    i.RCC_DeInit        stm32f10x_rcc.o
    0x08003b60   0x08003b60   0x000000d4   Code   RO         3075    i.RCC_GetClocksFreq  stm32f10x_rcc.o
    0x08003c34   0x08003c34   0x0000003c   Code   RO         3076    i.RCC_GetFlagStatus  stm32f10x_rcc.o
    0x08003c70   0x08003c70   0x00000010   Code   RO         3078    i.RCC_GetSYSCLKSource  stm32f10x_rcc.o
    0x08003c80   0x08003c80   0x00000018   Code   RO         3079    i.RCC_HCLKConfig    stm32f10x_rcc.o
    0x08003c98   0x08003c98   0x0000004c   Code   RO         3080    i.RCC_HSEConfig     stm32f10x_rcc.o
    0x08003ce4   0x08003ce4   0x00000018   Code   RO         3086    i.RCC_PCLK1Config   stm32f10x_rcc.o
    0x08003cfc   0x08003cfc   0x00000018   Code   RO         3087    i.RCC_PCLK2Config   stm32f10x_rcc.o
    0x08003d14   0x08003d14   0x0000000c   Code   RO         3088    i.RCC_PLLCmd        stm32f10x_rcc.o
    0x08003d20   0x08003d20   0x0000001c   Code   RO         3089    i.RCC_PLLConfig     stm32f10x_rcc.o
    0x08003d3c   0x08003d3c   0x00000018   Code   RO         3092    i.RCC_SYSCLKConfig  stm32f10x_rcc.o
    0x08003d54   0x08003d54   0x00000038   Code   RO         3094    i.RCC_WaitForHSEStartUp  stm32f10x_rcc.o
    0x08003d8c   0x08003d8c   0x0000005e   Code   RO         1327    i.Rcc_Init          rcc.o
    0x08003dea   0x08003dea   0x00000002   PAD
    0x08003dec   0x08003dec   0x0000006c   Code   RO         1261    i.Read              soft_i2c.o
    0x08003e58   0x08003e58   0x00000014   Code   RO          217    i.Replace_Char      global.o
    0x08003e6c   0x08003e6c   0x00000020   Code   RO          471    i.Rewrite_Eeprom    protocol.o
    0x08003e8c   0x08003e8c   0x00000018   Code   RO         3544    i.SPI_Cmd           stm32f10x_spi.o
    0x08003ea4   0x08003ea4   0x00000012   Code   RO         3552    i.SPI_I2S_GetFlagStatus  stm32f10x_spi.o
    0x08003eb6   0x08003eb6   0x00000006   Code   RO         3555    i.SPI_I2S_ReceiveData  stm32f10x_spi.o
    0x08003ebc   0x08003ebc   0x00000004   Code   RO         3556    i.SPI_I2S_SendData  stm32f10x_spi.o
    0x08003ec0   0x08003ec0   0x0000003c   Code   RO         3557    i.SPI_Init          stm32f10x_spi.o
    0x08003efc   0x08003efc   0x00000018   Code   RO         1340    i.SWJGpio_Init      sys.o
    0x08003f14   0x08003f14   0x00000128   Code   RO          472    i.Save_Action       protocol.o
    0x0800403c   0x0800403c   0x00000078   Code   RO         1262    i.Send              soft_i2c.o
    0x080040b4   0x080040b4   0x00000084   Code   RO         1263    i.Send_Ack          soft_i2c.o
    0x08004138   0x08004138   0x00000058   Code   RO          292    i.ServoState_Init   application.o
    0x08004190   0x08004190   0x0000000c   Code   RO          920    i.SetPrintfUart     uart.o
    0x0800419c   0x0800419c   0x00000008   Code   RO         1464    i.SetSysClock       system_stm32f10x.o
    0x080041a4   0x080041a4   0x000000e0   Code   RO         1465    i.SetSysClockTo72   system_stm32f10x.o
    0x08004284   0x08004284   0x00000064   Code   RO         1264    i.SoftI2C_init      soft_i2c.o
    0x080042e8   0x080042e8   0x00000076   Code   RO         1265    i.SoftI2C_read      soft_i2c.o
    0x0800435e   0x0800435e   0x00000058   Code   RO         1266    i.SoftI2C_write     soft_i2c.o
    0x080043b6   0x080043b6   0x00000002   PAD
    0x080043b8   0x080043b8   0x00000030   Code   RO         1341    i.Soft_Reset        sys.o
    0x080043e8   0x080043e8   0x000000ec   Code   RO          583    i.SoundTouchTask    function.o
    0x080044d4   0x080044d4   0x00000044   Code   RO         1031    i.Sound_Touch_Key_Init  key.o
    0x08004518   0x08004518   0x0000004c   Code   RO         1126    i.SpiFlash_Erase_Sector  spi_flash.o
    0x08004564   0x08004564   0x000000b4   Code   RO         1127    i.SpiFlash_Init     spi_flash.o
    0x08004618   0x08004618   0x00000058   Code   RO         1129    i.SpiFlash_Read     spi_flash.o
    0x08004670   0x08004670   0x00000030   Code   RO         1132    i.SpiFlash_Read_SR  spi_flash.o
    0x080046a0   0x080046a0   0x00000012   Code   RO         1133    i.SpiFlash_Wait_Busy  spi_flash.o
    0x080046b2   0x080046b2   0x00000002   PAD
    0x080046b4   0x080046b4   0x00000024   Code   RO         1136    i.SpiFlash_Write_Enable  spi_flash.o
    0x080046d8   0x080046d8   0x00000046   Code   RO         1137    i.SpiFlash_Write_No_Check  spi_flash.o
    0x0800471e   0x0800471e   0x00000002   PAD
    0x08004720   0x08004720   0x0000006c   Code   RO         1138    i.SpiFlash_Write_Page  spi_flash.o
    0x0800478c   0x0800478c   0x000000b4   Code   RO         1139    i.SpiFlash_Write_S  spi_flash.o
    0x08004840   0x08004840   0x00000024   Code   RO         1144    i.Spi_SetSpeed      spi_flash.o
    0x08004864   0x08004864   0x00000054   Code   RO         1145    i.Spi_WriteRead     spi_flash.o
    0x080048b8   0x080048b8   0x00000070   Code   RO         1268    i.Start             soft_i2c.o
    0x08004928   0x08004928   0x0000005c   Code   RO         1269    i.Stop              soft_i2c.o
    0x08004984   0x08004984   0x0000004a   Code   RO          219    i.Str_Contain_Str   global.o
    0x080049ce   0x080049ce   0x00000002   PAD
    0x080049d0   0x080049d0   0x00000060   Code   RO         1371    i.SysTickInit       systick.o
    0x08004a30   0x08004a30   0x00000010   Code   RO         1372    i.SysTick_Handler   systick.o
    0x08004a40   0x08004a40   0x00000060   Code   RO         1467    i.SystemInit        system_stm32f10x.o
    0x08004aa0   0x08004aa0   0x00000068   Code   RO         1416    i.TIM1_Init         timer.o
    0x08004b08   0x08004b08   0x000000a0   Code   RO         1417    i.TIM2_IRQHandler   timer.o
    0x08004ba8   0x08004ba8   0x00000066   Code   RO         1418    i.TIM2_Init         timer.o
    0x08004c0e   0x08004c0e   0x00000018   Code   RO         3687    i.TIM_ARRPreloadConfig  stm32f10x_tim.o
    0x08004c26   0x08004c26   0x00000006   Code   RO         3694    i.TIM_ClearITPendingBit  stm32f10x_tim.o
    0x08004c2c   0x08004c2c   0x00000018   Code   RO         3699    i.TIM_Cmd           stm32f10x_tim.o
    0x08004c44   0x08004c44   0x00000006   Code   RO         3718    i.TIM_GetCounter    stm32f10x_tim.o
    0x08004c4a   0x08004c4a   0x00000022   Code   RO         3720    i.TIM_GetITStatus   stm32f10x_tim.o
    0x08004c6c   0x08004c6c   0x00000012   Code   RO         3724    i.TIM_ITConfig      stm32f10x_tim.o
    0x08004c7e   0x08004c7e   0x00000004   Code   RO         3764    i.TIM_SetCounter    stm32f10x_tim.o
    0x08004c82   0x08004c82   0x00000002   PAD
    0x08004c84   0x08004c84   0x000000a4   Code   RO         3770    i.TIM_TimeBaseInit  stm32f10x_tim.o
    0x08004d28   0x08004d28   0x00000074   Code   RO          921    i.USART1_IRQHandler  uart.o
    0x08004d9c   0x08004d9c   0x00000030   Code   RO          922    i.USART2_IRQHandler  uart.o
    0x08004dcc   0x08004dcc   0x00000084   Code   RO          923    i.USART3_IRQHandler  uart.o
    0x08004e50   0x08004e50   0x0000001e   Code   RO         4232    i.USART_ClearITPendingBit  stm32f10x_usart.o
    0x08004e6e   0x08004e6e   0x00000018   Code   RO         4235    i.USART_Cmd         stm32f10x_usart.o
    0x08004e86   0x08004e86   0x00000012   Code   RO         4236    i.USART_DMACmd      stm32f10x_usart.o
    0x08004e98   0x08004e98   0x0000009c   Code   RO         4237    i.USART_DeInit      stm32f10x_usart.o
    0x08004f34   0x08004f34   0x0000001a   Code   RO         4238    i.USART_GetFlagStatus  stm32f10x_usart.o
    0x08004f4e   0x08004f4e   0x00000054   Code   RO         4239    i.USART_GetITStatus  stm32f10x_usart.o
    0x08004fa2   0x08004fa2   0x00000018   Code   RO         4240    i.USART_HalfDuplexCmd  stm32f10x_usart.o
    0x08004fba   0x08004fba   0x0000004a   Code   RO         4241    i.USART_ITConfig    stm32f10x_usart.o
    0x08005004   0x08005004   0x000000d8   Code   RO         4242    i.USART_Init        stm32f10x_usart.o
    0x080050dc   0x080050dc   0x0000000a   Code   RO         4249    i.USART_ReceiveData  stm32f10x_usart.o
    0x080050e6   0x080050e6   0x00000008   Code   RO         4252    i.USART_SendData    stm32f10x_usart.o
    0x080050ee   0x080050ee   0x00000002   PAD
    0x080050f0   0x080050f0   0x00000030   Code   RO          781    i.USTimer_Init      ultrasonic.o
    0x08005120   0x08005120   0x000000dc   Code   RO          782    i.US_DisRead        ultrasonic.o
    0x080051fc   0x080051fc   0x00000044   Code   RO          783    i.US_Init           ultrasonic.o
    0x08005240   0x08005240   0x00000108   Code   RO          924    i.Uart1_Init        uart.o
    0x08005348   0x08005348   0x000000a8   Code   RO          925    i.Uart2_Init        uart.o
    0x080053f0   0x080053f0   0x00000108   Code   RO          926    i.Uart3_Init        uart.o
    0x080054f8   0x080054f8   0x00000034   Code   RO          927    i.UartAll_Printf    uart.o
    0x0800552c   0x0800552c   0x000000c4   Code   RO          928    i.Uart_DataParse    uart.o
    0x080055f0   0x080055f0   0x0000001c   Code   RO          293    i.Uart_Init         application.o
    0x0800560c   0x0800560c   0x00000144   Code   RO          584    i.UsTask            function.o
    0x08005750   0x08005750   0x00000274   Code   RO          473    i.Voice_Cmd         protocol.o
    0x080059c4   0x080059c4   0x00000098   Code   RO         1270    i.Wait_Ack          soft_i2c.o
    0x08005a5c   0x08005a5c   0x00000020   Code   RO         4677    i.__0printf$6       mc_w.l(printf6.o)
    0x08005a7c   0x08005a7c   0x00000028   Code   RO         4679    i.__0sprintf$6      mc_w.l(printf6.o)
    0x08005aa4   0x08005aa4   0x00000026   Code   RO         4823    i.__ARM_fpclassifyf  m_ws.l(fpclassifyf.o)
    0x08005aca   0x08005aca   0x00000006   Code   RO         4826    i.__mathlib_flt_infnan  m_ws.l(funder.o)
    0x08005ad0   0x08005ad0   0x00000004   Code   RO         4827    i.__mathlib_flt_infnan2  m_ws.l(funder.o)
    0x08005ad4   0x08005ad4   0x00000008   Code   RO         4828    i.__mathlib_flt_invalid  m_ws.l(funder.o)
    0x08005adc   0x08005adc   0x0000000a   Code   RO         4831    i.__mathlib_flt_underflow  m_ws.l(funder.o)
    0x08005ae6   0x08005ae6   0x00000002   PAD
    0x08005ae8   0x08005ae8   0x00000168   Code   RO         4839    i.__mathlib_rredf2  m_ws.l(rredf.o)
    0x08005c50   0x08005c50   0x0000000e   Code   RO         4912    i.__scatterload_copy  mc_w.l(handlers.o)
    0x08005c5e   0x08005c5e   0x00000002   Code   RO         4913    i.__scatterload_null  mc_w.l(handlers.o)
    0x08005c60   0x08005c60   0x0000000e   Code   RO         4914    i.__scatterload_zeroinit  mc_w.l(handlers.o)
    0x08005c6e   0x08005c6e   0x00000002   PAD
    0x08005c70   0x08005c70   0x0000000c   Code   RO         4869    i.__set_errno       mc_w.l(errno.o)
    0x08005c7c   0x08005c7c   0x0000005a   Code   RO          618    i._build_frame      protocolconversion.o
    0x08005cd6   0x08005cd6   0x00000002   PAD
    0x08005cd8   0x08005cd8   0x000000fc   Code   RO          619    i._build_multi_sync  protocolconversion.o
    0x08005dd4   0x08005dd4   0x0000001c   Code   RO          620    i._chk              protocolconversion.o
    0x08005df0   0x08005df0   0x0000000e   Code   RO         4791    i._is_digit         mc_w.l(scanf_fp.o)
    0x08005dfe   0x08005dfe   0x00000002   PAD
    0x08005e00   0x08005e00   0x000002f0   Code   RO         4684    i._printf_core      mc_w.l(printf6.o)
    0x080060f0   0x080060f0   0x00000024   Code   RO         4685    i._printf_post_padding  mc_w.l(printf6.o)
    0x08006114   0x08006114   0x0000002e   Code   RO         4686    i._printf_pre_padding  mc_w.l(printf6.o)
    0x08006142   0x08006142   0x0000000a   Code   RO         4688    i._sputc            mc_w.l(printf6.o)
    0x0800614c   0x0800614c   0x00000008   Code   RO          621    i._u16be            protocolconversion.o
    0x08006154   0x08006154   0x00000018   Code   RO          220    i.abs_float         global.o
    0x0800616c   0x0800616c   0x000000cc   Code   RO          474    i.angle_to_PWM      protocol.o
    0x08006238   0x08006238   0x000002a4   Code   RO         4466    i.atan2f            m_ws.l(atan2f.o)
    0x080064dc   0x080064dc   0x00000128   Code   RO          622    i.busServo_asciiToBin  protocolconversion.o
    0x08006604   0x08006604   0x0000017c   Code   RO         4474    i.cosf              m_ws.l(cosf.o)
    0x08006780   0x08006780   0x00000042   Code   RO         4481    i.fmax              m_ws.l(fmax.o)
    0x080067c2   0x080067c2   0x00000042   Code   RO         4499    i.fmin              m_ws.l(fmin.o)
    0x08006804   0x08006804   0x00000078   Code   RO          929    i.fputc             uart.o
    0x0800687c   0x0800687c   0x0000067c   Code   RO          559    i.inverseKinematics  kinematics.o
    0x08006ef8   0x08006ef8   0x00000078   Code   RO          623    i.lookup_cmd        protocolconversion.o
    0x08006f70   0x08006f70   0x0000010c   Code   RO          294    i.loop_Joystick_key  application.o
    0x0800707c   0x0800707c   0x00000028   Code   RO          295    i.loop_app          application.o
    0x080070a4   0x080070a4   0x000000c0   Code   RO          296    i.loop_key          application.o
    0x08007164   0x08007164   0x000001e0   Code   RO            1    i.loop_oled         main.o
    0x08007344   0x08007344   0x00000010   Code   RO            2    i.main              main.o
    0x08007354   0x08007354   0x00000006   Code   RO          624    i.pack_none         protocolconversion.o
    0x0800735a   0x0800735a   0x00000002   PAD
    0x0800735c   0x0800735c   0x00000054   Code   RO          625    i.pack_pid_write    protocolconversion.o
    0x080073b0   0x080073b0   0x0000005c   Code   RO          626    i.pack_position     protocolconversion.o
    0x0800740c   0x0800740c   0x000000ac   Code   RO          297    i.setup_app         application.o
    0x080074b8   0x080074b8   0x00000030   Code   RO          298    i.setup_run_action  application.o
    0x080074e8   0x080074e8   0x00000188   Code   RO         4484    i.sinf              m_ws.l(sinf.o)
    0x08007670   0x08007670   0x0000002c   Code   RO         4492    i.sqrtf             m_ws.l(sqrtf.o)
    0x0800769c   0x0800769c   0x00000008   Code   RO          627    i.tx_id             protocolconversion.o
    0x080076a4   0x080076a4   0x0000002c   Code   RO          930    i.uart1_send_str    uart.o
    0x080076d0   0x080076d0   0x00000044   Code   RO          931    i.uart2_send_bytes  uart.o
    0x08007714   0x08007714   0x00000044   Code   RO          932    i.uart2_send_str    uart.o
    0x08007758   0x08007758   0x00000048   Code   RO          628    i.user_parse_ascii_command  protocolconversion.o
    0x080077a0   0x080077a0   0x00000018   Data   RO          476    .constdata          protocol.o
    0x080077b8   0x080077b8   0x00000090   Data   RO          560    .constdata          kinematics.o
    0x08007848   0x08007848   0x00000063   Data   RO          585    .constdata          function.o
    0x080078ab   0x080078ab   0x00000001   PAD
    0x080078ac   0x080078ac   0x000000fc   Data   RO          629    .constdata          protocolconversion.o
    0x080079a8   0x080079a8   0x00000ce0   Data   RO          704    .constdata          oled.o
    0x08008688   0x08008688   0x00000014   Data   RO         1079    .constdata          ps2.o
    0x0800869c   0x0800869c   0x00000020   Data   RO         4840    .constdata          m_ws.l(rredf.o)
    0x080086bc   0x080086bc   0x00000040   Data   RO         4908    .constdata          mc_w.l(ctype_c.o)
    0x080086fc   0x080086fc   0x0000027d   Data   RO          435    .conststring        app_ps2.o
    0x08008979   0x08008979   0x00000003   PAD
    0x0800897c   0x0800897c   0x00000089   Data   RO          630    .conststring        protocolconversion.o
    0x08008a05   0x08008a05   0x00000003   PAD
    0x08008a08   0x08008a08   0x00000020   Data   RO         4910    Region$$Table       anon$$obj.o


    Execution Region RW_IRAM1 (Exec base: 0x20000000, Load base: 0x08008a28, Size: 0x00002b18, Max: 0x00005000, ABSOLUTE, COMPRESSED[0x0000014c])

    Exec Addr    Load Addr    Size         Type   Attr      Idx    E Section Name        Object

    0x20000000   COMPRESSED   0x00000405   Data   RW            3    .data               main.o
    0x20000405   COMPRESSED   0x00000003   PAD
    0x20000408   COMPRESSED   0x00000021   Data   RW          299    .data               application.o
    0x20000429   COMPRESSED   0x00000003   PAD
    0x2000042c   COMPRESSED   0x00000020   Data   RW          390    .data               action.o
    0x2000044c   COMPRESSED   0x0000004c   Data   RW          436    .data               app_ps2.o
    0x20000498   COMPRESSED   0x00000001   Data   RW          477    .data               protocol.o
    0x20000499   COMPRESSED   0x00000003   PAD
    0x2000049c   COMPRESSED   0x00000028   Data   RW          586    .data               function.o
    0x200004c4   COMPRESSED   0x00000004   Data   RW          873    .data               pwmservo.o
    0x200004c8   COMPRESSED   0x0000000a   Data   RW          934    .data               uart.o
    0x200004d2   COMPRESSED   0x00000003   Data   RW         1080    .data               ps2.o
    0x200004d5   COMPRESSED   0x00000001   PAD
    0x200004d6   COMPRESSED   0x00000005   Data   RW         1147    .data               spi_flash.o
    0x200004db   COMPRESSED   0x00000001   PAD
    0x200004dc   COMPRESSED   0x00000004   Data   RW         1373    .data               systick.o
    0x200004e0   COMPRESSED   0x00000003   Data   RW         1419    .data               timer.o
    0x200004e3   COMPRESSED   0x00000001   PAD
    0x200004e4   COMPRESSED   0x00000014   Data   RW         1468    .data               system_stm32f10x.o
    0x200004f8   COMPRESSED   0x00000014   Data   RW         3095    .data               stm32f10x_rcc.o
    0x2000050c   COMPRESSED   0x00000004   Data   RW         4858    .data               mc_w.l(stdout.o)
    0x20000510   COMPRESSED   0x00000004   Data   RW         4870    .data               mc_w.l(errno.o)
    0x20000514        -       0x00000504   Zero   RW          475    .bss                protocol.o
    0x20000a18        -       0x000000e0   Zero   RW          872    .bss                pwmservo.o
    0x20000af8        -       0x00000c00   Zero   RW          933    .bss                uart.o
    0x200016f8        -       0x00000009   Zero   RW         1078    .bss                ps2.o
    0x20001701   COMPRESSED   0x00000001   PAD
    0x20001702        -       0x00001012   Zero   RW         1146    .bss                spi_flash.o
    0x20002714   COMPRESSED   0x00000004   PAD
    0x20002718        -       0x00000400   Zero   RW         1457    STACK               startup_stm32f10x_md.o


==============================================================================

Image component sizes


      Code (inc. data)   RO Data    RW Data    ZI Data      Debug   Object Name

       380         52          0         32          0       2289   action.o
       648         60        637         76          0       2301   app_ps2.o
      1736        406          0         33          0       7353   application.o
       104         12          0          0          0       1161   beep.o
         0          0          0          0          0         32   core_cm3.o
      1152        258         99         40          0       3767   function.o
       118          0          0          0          0     213508   global.o
        48          0          0          0          0       1604   gy33t.o
       462         36          0          0          0       4094   joystick.o
       104          8          0          0          0       1038   key.o
      1660         38        144          0          0       3473   kinematics.o
        56          6          0          0          0        503   led.o
       496        214          0       1029          0     283357   main.o
       112         12          0          0          0       1012   misc.o
       746         14       3296          0          0       4784   oled.o
      3484        938         24          1       1284       7424   protocol.o
      1056         94        389          0          0       9341   protocolconversion.o
       816         60         20          3          9       4683   ps2.o
       992         64          0          4        224       6382   pwmservo.o
        94          0          0          0          0        539   rcc.o
        60          8          0          0          0        474   servopid.o
      1022         34          0          0          0       6249   soft_i2c.o
       924         60          0          5       4114       8247   spi_flash.o
        36          8        236          0       1024        828   startup_stm32f10x_md.o
       394         10          0          0          0       8057   stm32f10x_adc.o
       428          8          0          0          0       4548   stm32f10x_dma.o
       476          6          0          0          0       5711   stm32f10x_gpio.o
       816        116          0         20          0      12847   stm32f10x_rcc.o
       112          0          0          0          0       3842   stm32f10x_spi.o
       280         42          0          0          0       5191   stm32f10x_tim.o
       670         28          0          0          0       8595   stm32f10x_usart.o
        72         14          0          0          0      16179   sys.o
       328         28          0         20          0       2381   system_stm32f10x.o
       196         22          0          4          0      18118   systick.o
       366         18          0          3          0       2404   timer.o
      1552        140          0         10       3072       9233   uart.o
       336         34          0          0          0       1798   ultrasonic.o

    ----------------------------------------------------------------------
     22366       2848       4884       1292       9732     673347   Object Totals
         0          0         32          0          0          0   (incl. Generated)
        34          0          7         12          5          0   (incl. Padding)

    ----------------------------------------------------------------------

      Code (inc. data)   RO Data    RW Data    ZI Data      Debug   Library Member Name

       676         78          0          0          0        116   atan2f.o
       380         52          0          0          0        124   cosf.o
        66          0          0          0          0         84   fmax.o
        66          0          0          0          0         84   fmin.o
        38          0          0          0          0         68   fpclassifyf.o
        28          0          0          0          0        272   funder.o
       360         16         32          0          0         88   rredf.o
       392         54          0          0          0        124   sinf.o
        44          0          0          0          0         80   sqrtf.o
        56          8          0          0          0         84   __0sscanf.o
        86          0          0          0          0          0   __dczerorl2.o
        28          0          0          0          0         68   _chval.o
       816          6          0          0          0        112   _scanf.o
       332          0          0          0          0         96   _scanf_int.o
       224          0          0          0          0         96   _scanf_str.o
        64          0          0          0          0         84   _sgetc.o
        40          6         64          0          0         68   ctype_c.o
         0          0          0          0          0          0   entry.o
         0          0          0          0          0          0   entry10a.o
         0          0          0          0          0          0   entry11a.o
         4          0          0          0          0          0   entry12b.o
         8          4          0          0          0          0   entry2.o
         4          0          0          0          0          0   entry5.o
         0          0          0          0          0          0   entry7b.o
         0          0          0          0          0          0   entry8b.o
         8          4          0          0          0          0   entry9a.o
        12          6          0          4          0         68   errno.o
        30          0          0          0          0          0   handlers.o
        36          8          0          0          0         68   init.o
        10          0          0          0          0         68   isspace_c.o
         0          0          0          0          0          0   iusefp.o
        30          0          0          0          0         68   llshl.o
        36          0          0          0          0         68   llsshr.o
        32          0          0          0          0         68   llushr.o
        36          0          0          0          0         68   memcpya.o
        36          0          0          0          0        108   memseta.o
       916         20          0          0          0        504   printf6.o
        40          8          0          0          0         84   scanf_char.o
       878         12          0          0          0        216   scanf_fp.o
         0          0          0          4          0          0   stdout.o
        20          0          0          0          0         68   strchr.o
        28          0          0          0          0         76   strcmp.o
        18          0          0          0          0         68   strcpy.o
        14          0          0          0          0         68   strlen.o
        30          0          0          0          0         80   strncmp.o
        12          0          0          0          0         68   toupper.o
        44          0          0          0          0         80   uidiv.o
        20          0          0          0          0         68   cfcmple.o
        20          0          0          0          0         68   cfrcmple.o
        56          0          0          0          0         88   d2f.o
       334          0          0          0          0        148   dadd.o
        96          0          0          0          0         80   dcmp4.o
       222          0          0          0          0        100   ddiv.o
       186          0          0          0          0        176   depilogue.o
        24          0          0          0          0         76   dfltul.o
       228          0          0          0          0         96   dmul.o
        38          0          0          0          0         68   f2d.o
       176          0          0          0          0        140   fadd.o
       124          0          0          0          0         88   fdiv.o
       110          0          0          0          0        168   fepilogue.o
        50          0          0          0          0         68   ffixi.o
        40          0          0          0          0         68   ffixui.o
        18          0          0          0          0         68   fflti.o
        10          0          0          0          0         68   ffltui.o
       100          0          0          0          0         76   fmul.o
        60          0          0          0          0         76   frnd.o
        24          0          0          0          0         68   fscalb.o
        94          0          0          0          0         96   fsqrt.o

    ----------------------------------------------------------------------
      8022        282         96          8          0       5496   Library Totals
        14          0          0          0          0          0   (incl. Padding)

    ----------------------------------------------------------------------

      Code (inc. data)   RO Data    RW Data    ZI Data      Debug   Library Name

      2050        200         32          0          0       1040   m_ws.l
      3928         82         64          8          0       2504   mc_w.l
      2030          0          0          0          0       1952   mf_w.l

    ----------------------------------------------------------------------
      8022        282         96          8          0       5496   Library Totals

    ----------------------------------------------------------------------

==============================================================================


      Code (inc. data)   RO Data    RW Data    ZI Data      Debug   

     30388       3130       4980       1300       9732     666075   Grand Totals
     30388       3130       4980        332       9732     666075   ELF Image Totals (compressed)
     30388       3130       4980        332          0          0   ROM Totals

==============================================================================

    Total RO  Size (Code + RO Data)                35368 (  34.54kB)
    Total RW  Size (RW Data + ZI Data)             11032 (  10.77kB)
    Total ROM Size (Code + RO Data + RW Data)      35700 (  34.86kB)

==============================================================================

